gpasm-1.4.0 #1106 (Oct  6 2014) obj\Debug\But   5-1-2022  15:39:59          PAGE  1


LOC    OBJECT CODE    LINE  SOURCE TEXT
  VALUE

                      00001 ;--------------------------------------------------------
                      00002 ; File Created by SDCC : free open source ANSI-C Compiler
                      00003 ; Version 3.5.0 #9253 (Jun 20 2015) (MINGW32)
                      00004 ; This file was generated Sun May 01 15:39:58 2022
                      00005 ;--------------------------------------------------------
                      00006 ; PIC port for the 14-bit core
                      00007 ;--------------------------------------------------------
                      00008         .file   "Button.c"
                      00009         list    p=16f877a
                      00010         radix dec
                      00011         include "p16f877a.inc"
                      00001         LIST
                      00002 
                      00003 ;==========================================================================
                      00004 ; Build date : Aug 07 2014
                      00005 ;  MPASM PIC16F877A processor include
                      00006 ; 
                      00007 ;  (c) Copyright 1999-2014 Microchip Technology, All rights reserved
                      00008 ;==========================================================================
                      00009 
                      00567         LIST
                      00012 ;--------------------------------------------------------
                      00013 ; external declarations
                      00014 ;--------------------------------------------------------
  0000                00015         extern  _TMR_Init
  0000                00016         extern  _TMR_Start
  0000                00017         extern  _TMR_CheckOverFlow
  0000                00018         extern  _TMR_Stop
  0000                00019         extern  _TMR_Update
  0000                00020         extern  _STATUSbits
  0000                00021         extern  _PORTAbits
  0000                00022         extern  _PORTBbits
  0000                00023         extern  _PORTCbits
  0000                00024         extern  _PORTDbits
  0000                00025         extern  _PORTEbits
  0000                00026         extern  _INTCONbits
  0000                00027         extern  _PIR1bits
  0000                00028         extern  _PIR2bits
  0000                00029         extern  _T1CONbits
  0000                00030         extern  _T2CONbits
  0000                00031         extern  _SSPCONbits
  0000                00032         extern  _CCP1CONbits
  0000                00033         extern  _RCSTAbits
  0000                00034         extern  _CCP2CONbits
  0000                00035         extern  _ADCON0bits
  0000                00036         extern  _OPTION_REGbits
  0000                00037         extern  _TRISAbits
  0000                00038         extern  _TRISBbits
  0000                00039         extern  _TRISCbits
  0000                00040         extern  _TRISDbits
  0000                00041         extern  _TRISEbits
  0000                00042         extern  _PIE1bits
  0000                00043         extern  _PIE2bits
gpasm-1.4.0 #1106 (Oct  6 2014) obj\Debug\But   5-1-2022  15:39:59          PAGE  2


LOC    OBJECT CODE    LINE  SOURCE TEXT
  VALUE

  0000                00044         extern  _PCONbits
  0000                00045         extern  _SSPCON2bits
  0000                00046         extern  _SSPSTATbits
  0000                00047         extern  _TXSTAbits
  0000                00048         extern  _CMCONbits
  0000                00049         extern  _CVRCONbits
  0000                00050         extern  _ADCON1bits
  0000                00051         extern  _EECON1bits
  0000                00052         extern  _INDF
  0000                00053         extern  _TMR0
  0000                00054         extern  _PCL
  0000                00055         extern  _STATUS
  0000                00056         extern  _FSR
  0000                00057         extern  _PORTA
  0000                00058         extern  _PORTB
  0000                00059         extern  _PORTC
  0000                00060         extern  _PORTD
  0000                00061         extern  _PORTE
  0000                00062         extern  _PCLATH
  0000                00063         extern  _INTCON
  0000                00064         extern  _PIR1
  0000                00065         extern  _PIR2
  0000                00066         extern  _TMR1
  0000                00067         extern  _TMR1L
  0000                00068         extern  _TMR1H
  0000                00069         extern  _T1CON
  0000                00070         extern  _TMR2
  0000                00071         extern  _T2CON
  0000                00072         extern  _SSPBUF
  0000                00073         extern  _SSPCON
  0000                00074         extern  _CCPR1
  0000                00075         extern  _CCPR1L
  0000                00076         extern  _CCPR1H
  0000                00077         extern  _CCP1CON
  0000                00078         extern  _RCSTA
  0000                00079         extern  _TXREG
  0000                00080         extern  _RCREG
  0000                00081         extern  _CCPR2
  0000                00082         extern  _CCPR2L
  0000                00083         extern  _CCPR2H
  0000                00084         extern  _CCP2CON
  0000                00085         extern  _ADRESH
  0000                00086         extern  _ADCON0
  0000                00087         extern  _OPTION_REG
  0000                00088         extern  _TRISA
  0000                00089         extern  _TRISB
  0000                00090         extern  _TRISC
  0000                00091         extern  _TRISD
  0000                00092         extern  _TRISE
  0000                00093         extern  _PIE1
  0000                00094         extern  _PIE2
  0000                00095         extern  _PCON
  0000                00096         extern  _SSPCON2
gpasm-1.4.0 #1106 (Oct  6 2014) obj\Debug\But   5-1-2022  15:39:59          PAGE  3


LOC    OBJECT CODE    LINE  SOURCE TEXT
  VALUE

  0000                00097         extern  _PR2
  0000                00098         extern  _SSPADD
  0000                00099         extern  _SSPSTAT
  0000                00100         extern  _TXSTA
  0000                00101         extern  _SPBRG
  0000                00102         extern  _CMCON
  0000                00103         extern  _CVRCON
  0000                00104         extern  _ADRESL
  0000                00105         extern  _ADCON1
  0000                00106         extern  _EEDATA
  0000                00107         extern  _EEADR
  0000                00108         extern  _EEDATH
  0000                00109         extern  _EEADRH
  0000                00110         extern  _EECON1
  0000                00111         extern  _EECON2
  0000                00112         extern  __mulchar
                      00113 
  0000                00114         extern PSAVE
  0000                00115         extern SSAVE
  0000                00116         extern WSAVE
  0000                00117         extern STK12
  0000                00118         extern STK11
  0000                00119         extern STK10
  0000                00120         extern STK09
  0000                00121         extern STK08
  0000                00122         extern STK07
  0000                00123         extern STK06
  0000                00124         extern STK05
  0000                00125         extern STK04
  0000                00126         extern STK03
  0000                00127         extern STK02
  0000                00128         extern STK01
  0000                00129         extern STK00
                      00130 ;--------------------------------------------------------
                      00131 ; global declarations
                      00132 ;--------------------------------------------------------
  0000                00133         global  _SW_Update
  0000                00134         global  _SW_GetState
  0000                00135         global  _SW_Init
                      00136 
                      00137 ;--------------------------------------------------------
                      00138 ; global definitions
                      00139 ;--------------------------------------------------------
                      00140 ;--------------------------------------------------------
                      00141 ; absolute symbol definitions
                      00142 ;--------------------------------------------------------
                      00143 ;--------------------------------------------------------
                      00144 ; compiler-defined variables
                      00145 ;--------------------------------------------------------
                      00146 UDL_Button_0    udata
0000                  00147 r0x1024 res     1
0001                  00148 r0x1025 res     1
0002                  00149 r0x1026 res     1
gpasm-1.4.0 #1106 (Oct  6 2014) obj\Debug\But   5-1-2022  15:39:59          PAGE  4


LOC    OBJECT CODE    LINE  SOURCE TEXT
  VALUE

0003                  00150 r0x1027 res     1
0004                  00151 r0x1028 res     1
0005                  00152 r0x1029 res     1
0006                  00153 r0x102A res     1
0007                  00154 r0x102B res     1
0008                  00155 r0x1020 res     1
0009                  00156 r0x1021 res     1
000A                  00157 r0x1022 res     1
000B                  00158 r0x1023 res     1
000C                  00159 r0x1016 res     1
000D                  00160 r0x1017 res     1
000E                  00161 r0x1018 res     1
000F                  00162 r0x1019 res     1
0010                  00163 r0x101A res     1
0011                  00164 r0x101B res     1
0012                  00165 r0x101C res     1
0013                  00166 r0x101D res     1
0014                  00167 r0x101E res     1
0015                  00168 r0x101F res     1
0016                  00169 _SWs_Info       res     20
002A                  00170 _SW_Update_SW_COUNTER_MS_1_16   res     2
                      00171 ;--------------------------------------------------------
                      00172 ; initialized data
                      00173 ;--------------------------------------------------------
                      00174 ;--------------------------------------------------------
                      00175 ; overlayable items in internal ram 
                      00176 ;--------------------------------------------------------
                      00177 ;       udata_ovr
                      00178 ;--------------------------------------------------------
                      00179 ; code
                      00180 ;--------------------------------------------------------
                      00181 code_Button     code
                      00182 ;***
                      00183 ;  pBlock Stats: dbName = C
                      00184 ;***
                      00185 ;entry:  _SW_Update     ;Function start
                      00186 ; 2 exit points
                      00187 ;has an exit
                      00188 ;functions called:
                      00189 ;   __mulchar
                      00190 ;   __mulchar
                      00191 ;   __mulchar
                      00192 ;   __mulchar
                      00193 ;11 compiler assigned registers:
                      00194 ;   r0x1016
                      00195 ;   r0x1017
                      00196 ;   STK00
                      00197 ;   r0x1018
                      00198 ;   r0x1019
                      00199 ;   r0x101A
                      00200 ;   r0x101B
                      00201 ;   r0x101C
                      00202 ;   r0x101D
gpasm-1.4.0 #1106 (Oct  6 2014) obj\Debug\But   5-1-2022  15:39:59          PAGE  5


LOC    OBJECT CODE    LINE  SOURCE TEXT
  VALUE

                      00203 ;   r0x101E
                      00204 ;   r0x101F
                      00205 ;; Starting pCode block
                      00206 ;;; /home/sdcc-builder/build/sdcc-build/orig/sdcc/src/pic14/gen.c:2316:resultRemat *{*
                      00207 ;;; /home/sdcc-builder/build/sdcc-build/orig/sdcc/src/pic14/gen.c:2760:genLabel *{*
                      00208 ;; ***  genLabel  2763
                      00209 ;;; /home/sdcc-builder/build/sdcc-build/orig/sdcc/src/pic14/gen.c:2316:resultRemat *{*
                      00210 ;;; /home/sdcc-builder/build/sdcc-build/orig/sdcc/src/pic14/gen.c:2340:genFunction *{*
                      00211 ;; ***  genFunction  2342 curr label offset=17previous max_key=0 
0000                  00212 _SW_Update      ;Function start
                      00213 ; 2 exit points
                      00214 ;;; /home/sdcc-builder/build/sdcc-build/orig/sdcc/src/pic14/gen.c:2316:resultRemat *{*
                      00215 ;; ***  genPlus  611
                      00216 ;;; /home/sdcc-builder/build/sdcc-build/orig/sdcc/src/pic14/genarith.c:612:genPlus *{*
                      00217 ;; ***  aopForSym 315
                      00218 ;;      327 sym->rname = _SW_Update_SW_COUNTER_MS_1_16, size = 2
                      00219 ;;      575
                      00220 ;;      line = 618 result AOP_DIR=_SW_Update_SW_COUNTER_MS_1_16, size=2, left AOP_DIR=_SW_Update_SW_COUN
                            TER_MS_1_16, size=2, right AOP_LIT=0x05, size=2
                      00221 ;;; /home/sdcc-builder/build/sdcc-build/orig/sdcc/src/pic14/genarith.c:142:genPlusIncr *{*
                      00222 ;; ***  genPlusIncr  144
                      00223 ;;      result AOP_DIR, left AOP_DIR, right AOP_LIT
                      00224 ;;      genPlusIncr  156
                      00225 ;;      adding lit to something. size 2
                      00226 ;;; /home/sdcc-builder/build/sdcc-build/orig/sdcc/src/pic14/genarith.c:269:genAddLit *{*
                      00227 ;; ***  genAddLit  270
                      00228 ;; hi = 0       genAddLit  328
                      00229 ;; >>> /home/sdcc-builder/build/sdcc-build/orig/sdcc/src/pic14/genarith.c:344:genAddLit
                      00230         .line   76; "Button.c"  SW_COUNTER_MS += TMR_TICK_MS;
0000   3005           00231         MOVLW   0x05
                      00232 ;; >>> /home/sdcc-builder/build/sdcc-build/orig/sdcc/src/pic14/genarith.c:345:genAddLit
                      00233 ;;      1009
                      00234 ;;      1028  _SW_Update_SW_COUNTER_MS_1_16   offset=0
0001   ???? ????      00235         BANKSEL _SW_Update_SW_COUNTER_MS_1_16
0003   07??           00236         ADDWF   _SW_Update_SW_COUNTER_MS_1_16,F
                      00237 ;; >>> /home/sdcc-builder/build/sdcc-build/orig/sdcc/src/pic14/genarith.c:346:genAddLit
0004   1803           00238         BTFSC   STATUS,0
                      00239 ;; >>> /home/sdcc-builder/build/sdcc-build/orig/sdcc/src/pic14/genarith.c:347:genAddLit
                      00240 ;;      1009
                      00241 ;;      1028  _SW_Update_SW_COUNTER_MS_1_16   offset=1
0005   0A??           00242         INCF    (_SW_Update_SW_COUNTER_MS_1_16 + 1),F
                      00243 ;; ***  addSign  861
                      00244 ;;; /home/sdcc-builder/build/sdcc-build/orig/sdcc/src/pic14/genarith.c:862:addSign *{*
                      00245 ;;; /home/sdcc-builder/build/sdcc-build/orig/sdcc/src/pic14/gen.c:2316:resultRemat *{*
                      00246 ;;; /home/sdcc-builder/build/sdcc-build/orig/sdcc/src/pic14/gen.c:3619:genCmpEq *{*
                      00247 ;; ***  genCmpEq  3620
                      00248 ;; ifx is non-null
                      00249 ;; ***  aopForSym 315
                      00250 ;;      327 sym->rname = _SW_Update_SW_COUNTER_MS_1_16, size = 2
                      00251 ;;      line = 3631 result AOP_CRY=0x00, size=0, left AOP_DIR=_SW_Update_SW_COUNTER_MS_1_16, size=2, rig
                            ht AOP_LIT=0x14, size=2
                      00252 ;; ***  mov2w  1381  offset=0
                      00253 ;; >>> /home/sdcc-builder/build/sdcc-build/orig/sdcc/src/pic14/gen.c:1386:mov2w
gpasm-1.4.0 #1106 (Oct  6 2014) obj\Debug\But   5-1-2022  15:39:59          PAGE  6


LOC    OBJECT CODE    LINE  SOURCE TEXT
  VALUE

                      00254 ;;      1009
                      00255 ;;      1028  _SW_Update_SW_COUNTER_MS_1_16   offset=0
                      00256         .line   78; "Button.c"  if (SW_COUNTER_MS != SW_PERIOD_MS){
0006   08??           00257         MOVF    _SW_Update_SW_COUNTER_MS_1_16,W
                      00258 ;; >>> /home/sdcc-builder/build/sdcc-build/orig/sdcc/src/pic14/gen.c:3685:genCmpEq
0007   3A14           00259         XORLW   0x14
                      00260 ;; >>> /home/sdcc-builder/build/sdcc-build/orig/sdcc/src/pic14/gen.c:3687:genCmpEq
0008   1D03           00261         BTFSS   STATUS,2
                      00262 ;; >>> /home/sdcc-builder/build/sdcc-build/orig/sdcc/src/pic14/gen.c:3690:genCmpEq
                      00263 ;; ***  popGetLabel  key=103, label offset 21
0009   2???           00264         GOTO    _00224_DS_
                      00265 ;; ***  mov2w  1381  offset=1
                      00266 ;; >>> /home/sdcc-builder/build/sdcc-build/orig/sdcc/src/pic14/gen.c:1386:mov2w
                      00267 ;;      1009
                      00268 ;;      1028  _SW_Update_SW_COUNTER_MS_1_16   offset=1
000A   08??           00269         MOVF    (_SW_Update_SW_COUNTER_MS_1_16 + 1),W
                      00270 ;; >>> /home/sdcc-builder/build/sdcc-build/orig/sdcc/src/pic14/gen.c:3685:genCmpEq
                      00271         .line   79; "Button.c"  return;
000B   3A00           00272         XORLW   0x00
                      00273         .line   82; "Button.c"  SW_COUNTER_MS = 0;
000C   1D03           00274         BTFSS   STATUS,2
000D                  00275 _00224_DS_
000D   2???           00276         GOTO    _00158_DS_
000E   ???? ????      00277         BANKSEL _SW_Update_SW_COUNTER_MS_1_16
0010   01??           00278         CLRF    _SW_Update_SW_COUNTER_MS_1_16
0011   01??           00279         CLRF    (_SW_Update_SW_COUNTER_MS_1_16 + 1)
                      00280 ;;; /home/sdcc-builder/build/sdcc-build/orig/sdcc/src/pic14/gen.c:2316:resultRemat *{*
                      00281 ;;; /home/sdcc-builder/build/sdcc-build/orig/sdcc/src/pic14/gen.c:2316:resultRemat *{*
                      00282 ;;; /home/sdcc-builder/build/sdcc-build/orig/sdcc/src/pic14/gen.c:6927:genAssign *{*
                      00283 ;; ***  genAssign  6928
                      00284 ;;      694 register type nRegs=1
                      00285 ;;      line = 6937 result AOP_REG=r0x1056, size=1, left -=-, size=0, right AOP_LIT=0x00, size=1
                      00286 ;; ***  genAssign  7023
                      00287 ;; >>> /home/sdcc-builder/build/sdcc-build/orig/sdcc/src/pic14/gen.c:7035:genAssign
                      00288 ;;      1109 rIdx = r0x1056 
                      00289         .line   85; "Button.c"  for (current_SW = SW_INCREMENT; current_SW < N_SWITCHES; current_SW++)
0012   ???? ????      00290         BANKSEL r0x1016
0014   01??           00291         CLRF    r0x1016
                      00292 ;;; /home/sdcc-builder/build/sdcc-build/orig/sdcc/src/pic14/gen.c:2316:resultRemat *{*
                      00293 ;;; /home/sdcc-builder/build/sdcc-build/orig/sdcc/src/pic14/gen.c:2760:genLabel *{*
                      00294 ;; ***  genLabel  2763
                      00295 ;;; /home/sdcc-builder/build/sdcc-build/orig/sdcc/src/pic14/gen.c:2316:resultRemat *{*
                      00296 ;;; /home/sdcc-builder/build/sdcc-build/orig/sdcc/src/pic14/gen.c:6927:genAssign *{*
                      00297 ;; ***  genAssign  6928
                      00298 ;;      694 register type nRegs=1
                      00299 ;;      line = 6937 result AOP_REG=r0x1057, size=1, left -=-, size=0, right AOP_LIT=0x00, size=1
                      00300 ;; ***  genAssign  7023
                      00301 ;; >>> /home/sdcc-builder/build/sdcc-build/orig/sdcc/src/pic14/gen.c:7035:genAssign
                      00302 ;;      1109 rIdx = r0x1057 
0015                  00303 _00156_DS_
                      00304         .line   89; "Button.c"  for(sample_index = 0; sample_index < N_SAMPLES-1; sample_index++)
0015   ???? ????      00305         BANKSEL r0x1017
0017   01??           00306         CLRF    r0x1017
gpasm-1.4.0 #1106 (Oct  6 2014) obj\Debug\But   5-1-2022  15:39:59          PAGE  7


LOC    OBJECT CODE    LINE  SOURCE TEXT
  VALUE

                      00307 ;;; /home/sdcc-builder/build/sdcc-build/orig/sdcc/src/pic14/gen.c:2316:resultRemat *{*
                      00308 ;;; /home/sdcc-builder/build/sdcc-build/orig/sdcc/src/pic14/gen.c:2878:genMult *{*
                      00309 ;; ***  genMult  2880
                      00310 ;;      694 register type nRegs=1
                      00311 ;;      694 register type nRegs=2
                      00312 ;;      line = 2886 result AOP_REG=r0x1058, size=2, left AOP_REG=r0x1056, size=1, right AOP_LIT=0x0a, si
                            ze=1
                      00313 ;;; /home/sdcc-builder/build/sdcc-build/orig/sdcc/src/pic14/gen.c:2816:genMultOneByte *{*
                      00314 ;; ***  genMultOneByte  2818
                      00315 ;;      line = 2819 result AOP_REG=r0x1058, size=2, left AOP_REG=r0x1056, size=1, right AOP_LIT=0x0a, si
                            ze=1
                      00316 ;;      line = 2820, signs: result AOP_REG=u, left AOP_REG=u, right AOP_LIT=u
                      00317 ;; ***  mov2w  1381  offset=0
                      00318 ;; >>> /home/sdcc-builder/build/sdcc-build/orig/sdcc/src/pic14/gen.c:1384:mov2w
0018   300A           00319         MOVLW   0x0a
                      00320 ;; >>> /home/sdcc-builder/build/sdcc-build/orig/sdcc/src/pic14/gen.c:2840:genMultOneByte
                      00321 ;; ***  popRegFromIdx,1042  , rIdx=0x7f
0019   00??           00322         MOVWF   STK00
                      00323 ;; ***  mov2w  1381  offset=0
                      00324 ;; >>> /home/sdcc-builder/build/sdcc-build/orig/sdcc/src/pic14/gen.c:1386:mov2w
                      00325 ;;      1109 rIdx = r0x1056 
001A   08??           00326         MOVF    r0x1016,W
                      00327 ;; >>> /home/sdcc-builder/build/sdcc-build/orig/sdcc/src/pic14/gen.c:1433:call_libraryfunc
001B   ???? ????      00328         PAGESEL __mulchar
                      00329 ;; >>> /home/sdcc-builder/build/sdcc-build/orig/sdcc/src/pic14/gen.c:1435:call_libraryfunc
001D   2???           00330         CALL    __mulchar
                      00331 ;; >>> /home/sdcc-builder/build/sdcc-build/orig/sdcc/src/pic14/gen.c:1437:call_libraryfunc
001E   ???? ????      00332         PAGESEL $
                      00333 ;; >>> /home/sdcc-builder/build/sdcc-build/orig/sdcc/src/pic14/gen.c:1393:movwf
                      00334 ;;      1109 rIdx = r0x1058 
0020   ???? ????      00335         BANKSEL r0x1018
0022   00??           00336         MOVWF   r0x1018
                      00337 ;; ***  addSign  861
                      00338 ;;; /home/sdcc-builder/build/sdcc-build/orig/sdcc/src/pic14/genarith.c:862:addSign *{*
                      00339 ;; >>> /home/sdcc-builder/build/sdcc-build/orig/sdcc/src/pic14/genarith.c:881:addSign
                      00340 ;;      1109 rIdx = r0x1059 
0023   01??           00341         CLRF    r0x1019
                      00342 ;;; /home/sdcc-builder/build/sdcc-build/orig/sdcc/src/pic14/gen.c:2316:resultRemat *{*
                      00343 ;; ***  genPlus  611
                      00344 ;;; /home/sdcc-builder/build/sdcc-build/orig/sdcc/src/pic14/genarith.c:612:genPlus *{*
                      00345 ;;      613
                      00346 ;;      aopForRemat 392
                      00347 ;;      418: rname _SWs_Info, val 0, const = 0
                      00348 ;;      694 register type nRegs=2
                      00349 ;;      694 register type nRegs=2
                      00350 ;;      833: aopGet AOP_PCODE type PO_IMMEDIATE
                      00351 ;;      _SWs_Info
                      00352 ;;      line = 618 result AOP_REG=r0x1058, size=2, left AOP_PCODE=_SWs_Info, size=2, right AOP_REG=r0x10
                            58, size=2
                      00353 ;;; /home/sdcc-builder/build/sdcc-build/orig/sdcc/src/pic14/genarith.c:142:genPlusIncr *{*
                      00354 ;; ***  genPlusIncr  144
                      00355 ;;      result AOP_REG, left AOP_PCODE, right AOP_REG
                      00356 ;; ***  genPlus  717
gpasm-1.4.0 #1106 (Oct  6 2014) obj\Debug\But   5-1-2022  15:39:59          PAGE  8


LOC    OBJECT CODE    LINE  SOURCE TEXT
  VALUE

                      00357 ;;      833: aopGet AOP_PCODE type PO_IMMEDIATE
                      00358 ;;      _SWs_Info
                      00359 ;; >>> /home/sdcc-builder/build/sdcc-build/orig/sdcc/src/pic14/genarith.c:726:genPlus
                      00360 ;;      1109 rIdx = r0x1058 
0024   08??           00361         MOVF    r0x1018,W
                      00362 ;; >>> /home/sdcc-builder/build/sdcc-build/orig/sdcc/src/pic14/genarith.c:735:genPlus
0025   3E??           00363         ADDLW   (_SWs_Info + 0)
                      00364 ;; >>> /home/sdcc-builder/build/sdcc-build/orig/sdcc/src/pic14/genarith.c:736:genPlus
                      00365 ;;      1109 rIdx = r0x1058 
0026   00??           00366         MOVWF   r0x1018
                      00367 ;; >>> /home/sdcc-builder/build/sdcc-build/orig/sdcc/src/pic14/genarith.c:749:genPlus
                      00368 ;;      1109 rIdx = r0x1059 
0027   3000           00369         MOVLW   0x00
                      00370 ;; >>> /home/sdcc-builder/build/sdcc-build/orig/sdcc/src/pic14/genarith.c:750:genPlus
0028   1803           00371         BTFSC   STATUS,0
                      00372 ;; >>> /home/sdcc-builder/build/sdcc-build/orig/sdcc/src/pic14/genarith.c:751:genPlus
                      00373 ;;      1109 rIdx = r0x1059 
0029   0F??           00374         INCFSZ  r0x1019,W
                      00375 ;; >>> /home/sdcc-builder/build/sdcc-build/orig/sdcc/src/pic14/genarith.c:752:genPlus
002A   3E??           00376         ADDLW   high (_SWs_Info + 0)
                      00377 ;; >>> /home/sdcc-builder/build/sdcc-build/orig/sdcc/src/pic14/genarith.c:753:genPlus
                      00378 ;;      1109 rIdx = r0x1059 
002B   00??           00379         MOVWF   r0x1019
                      00380 ;;; /home/sdcc-builder/build/sdcc-build/orig/sdcc/src/pic14/gen.c:2316:resultRemat *{*
                      00381 ;;; /home/sdcc-builder/build/sdcc-build/orig/sdcc/src/pic14/gen.c:2760:genLabel *{*
                      00382 ;; ***  genLabel  2763
                      00383 ;;; /home/sdcc-builder/build/sdcc-build/orig/sdcc/src/pic14/gen.c:2316:resultRemat *{*
                      00384 ;; ***  genPlus  611
                      00385 ;;; /home/sdcc-builder/build/sdcc-build/orig/sdcc/src/pic14/genarith.c:612:genPlus *{*
                      00386 ;;      694 register type nRegs=2
                      00387 ;;      694 register type nRegs=1
                      00388 ;;      694 register type nRegs=2
                      00389 ;;      line = 618 result AOP_REG=r0x105A, size=2, left AOP_REG=r0x1058, size=2, right AOP_REG=r0x1057, 
                            size=1
                      00390 ;;; /home/sdcc-builder/build/sdcc-build/orig/sdcc/src/pic14/genarith.c:142:genPlusIncr *{*
                      00391 ;; ***  genPlusIncr  144
                      00392 ;;      result AOP_REG, left AOP_REG, right AOP_REG
                      00393 ;; ***  genPlus  717
                      00394 ;; >>> /home/sdcc-builder/build/sdcc-build/orig/sdcc/src/pic14/genarith.c:726:genPlus
                      00395 ;;      1109 rIdx = r0x1057 
002C                  00396 _00154_DS_
                      00397         .line   91; "Button.c"  SWs_Info[current_SW].sw_samples[sample_index] = SWs_Info[current_SW].sw_
                            samples[sample_index+1];
002C   ???? ????      00398         BANKSEL r0x1017
002E   08??           00399         MOVF    r0x1017,W
                      00400 ;; >>> /home/sdcc-builder/build/sdcc-build/orig/sdcc/src/pic14/genarith.c:735:genPlus
                      00401 ;;      1109 rIdx = r0x1058 
002F   07??           00402         ADDWF   r0x1018,W
                      00403 ;; >>> /home/sdcc-builder/build/sdcc-build/orig/sdcc/src/pic14/genarith.c:736:genPlus
                      00404 ;;      1109 rIdx = r0x105A 
0030   00??           00405         MOVWF   r0x101A
                      00406 ;; >>> /home/sdcc-builder/build/sdcc-build/orig/sdcc/src/pic14/genarith.c:799:genPlus
                      00407 ;;      1109 rIdx = r0x1059 
gpasm-1.4.0 #1106 (Oct  6 2014) obj\Debug\But   5-1-2022  15:39:59          PAGE  9


LOC    OBJECT CODE    LINE  SOURCE TEXT
  VALUE

0031   08??           00408         MOVF    r0x1019,W
                      00409 ;; >>> /home/sdcc-builder/build/sdcc-build/orig/sdcc/src/pic14/genarith.c:800:genPlus
0032   1803           00410         BTFSC   STATUS,0
                      00411 ;; >>> /home/sdcc-builder/build/sdcc-build/orig/sdcc/src/pic14/genarith.c:801:genPlus
0033   3E01           00412         ADDLW   0x01
                      00413 ;; >>> /home/sdcc-builder/build/sdcc-build/orig/sdcc/src/pic14/genarith.c:802:genPlus
                      00414 ;;      1109 rIdx = r0x105B 
0034   00??           00415         MOVWF   r0x101B
                      00416 ;;; /home/sdcc-builder/build/sdcc-build/orig/sdcc/src/pic14/gen.c:2316:resultRemat *{*
                      00417 ;; ***  genPlus  611
                      00418 ;;; /home/sdcc-builder/build/sdcc-build/orig/sdcc/src/pic14/genarith.c:612:genPlus *{*
                      00419 ;;      694 register type nRegs=1
                      00420 ;;      694 register type nRegs=1
                      00421 ;;      line = 618 result AOP_REG=r0x105C, size=1, left AOP_REG=r0x1057, size=1, right AOP_LIT=0x01, siz
                            e=1
                      00422 ;;; /home/sdcc-builder/build/sdcc-build/orig/sdcc/src/pic14/genarith.c:142:genPlusIncr *{*
                      00423 ;; ***  genPlusIncr  144
                      00424 ;;      result AOP_REG, left AOP_REG, right AOP_LIT
                      00425 ;;      genPlusIncr  156
                      00426 ;;      genPlusIncr  180
                      00427 ;;      couldn't increment 
                      00428 ;;      adding lit to something. size 1
                      00429 ;;; /home/sdcc-builder/build/sdcc-build/orig/sdcc/src/pic14/genarith.c:269:genAddLit *{*
                      00430 ;; ***  genAddLit  270
                      00431 ;;  left and result aren't same genAddLit  514
                      00432 ;; >>> /home/sdcc-builder/build/sdcc-build/orig/sdcc/src/pic14/genarith.c:526:genAddLit
                      00433 ;;      1109 rIdx = r0x1057 
0035   0A??           00434         INCF    r0x1017,W
                      00435 ;;; /home/sdcc-builder/build/sdcc-build/orig/sdcc/src/pic14/genarith.c:253:emitMOVWF *{*
                      00436 ;; >>> /home/sdcc-builder/build/sdcc-build/orig/sdcc/src/pic14/genarith.c:257:emitMOVWF
                      00437 ;;      1109 rIdx = r0x105C 
0036   00??           00438         MOVWF   r0x101C
0037   07??           00439         ADDWF   r0x1018,W
                      00440 ;; >>> /home/sdcc-builder/build/sdcc-build/orig/sdcc/src/pic14/genarith.c:736:genPlus
                      00441 ;;      1109 rIdx = r0x105D 
0038   00??           00442         MOVWF   r0x101D
                      00443 ;; >>> /home/sdcc-builder/build/sdcc-build/orig/sdcc/src/pic14/genarith.c:799:genPlus
                      00444 ;;      1109 rIdx = r0x1059 
0039   08??           00445         MOVF    r0x1019,W
                      00446 ;; >>> /home/sdcc-builder/build/sdcc-build/orig/sdcc/src/pic14/genarith.c:800:genPlus
003A   1803           00447         BTFSC   STATUS,0
                      00448 ;; >>> /home/sdcc-builder/build/sdcc-build/orig/sdcc/src/pic14/genarith.c:801:genPlus
003B   3E01           00449         ADDLW   0x01
                      00450 ;; >>> /home/sdcc-builder/build/sdcc-build/orig/sdcc/src/pic14/genarith.c:802:genPlus
                      00451 ;;      1109 rIdx = r0x105E 
003C   00??           00452         MOVWF   r0x101E
                      00453 ;;; /home/sdcc-builder/build/sdcc-build/orig/sdcc/src/pic14/gen.c:2316:resultRemat *{*
                      00454 ;;; /home/sdcc-builder/build/sdcc-build/orig/sdcc/src/pic14/gen.c:6162:genPointerGet *{*
                      00455 ;; ***  genPointerGet  6163
                      00456 ;;; /home/sdcc-builder/build/sdcc-build/orig/sdcc/src/pic14/gen.c:5944:genNearPointerGet *{*
                      00457 ;; ***  genNearPointerGet  5945
                      00458 ;;      694 register type nRegs=2
                      00459 ;; ***  genNearPointerGet  5961
gpasm-1.4.0 #1106 (Oct  6 2014) obj\Debug\But   5-1-2022  15:39:59          PAGE 10


LOC    OBJECT CODE    LINE  SOURCE TEXT
  VALUE

                      00460 ;;      694 register type nRegs=1
                      00461 ;;; /home/sdcc-builder/build/sdcc-build/orig/sdcc/src/pic14/gen.c:1343:mov2w_op *{*
                      00462 ;; ***  mov2w  1381  offset=0
                      00463 ;; >>> /home/sdcc-builder/build/sdcc-build/orig/sdcc/src/pic14/gen.c:1386:mov2w
                      00464 ;;      1109 rIdx = r0x105D 
003D   08??           00465         MOVF    r0x101D,W
                      00466 ;; >>> /home/sdcc-builder/build/sdcc-build/orig/sdcc/src/pic14/gen.c:5602:setup_fsr
003E   1283 1303      00467         BANKSEL FSR
0040   0084           00468         MOVWF   FSR
                      00469 ;;; /home/sdcc-builder/build/sdcc-build/orig/sdcc/src/pic14/gen.c:5553:SetIrp *{*
                      00470 ;; >>> /home/sdcc-builder/build/sdcc-build/orig/sdcc/src/pic14/gen.c:5580:SetIrp
0041   1383           00471         BCF     STATUS,7
                      00472 ;; >>> /home/sdcc-builder/build/sdcc-build/orig/sdcc/src/pic14/gen.c:5583:SetIrp
0042   ???? ????      00473         BANKSEL r0x101E
0044   18??           00474         BTFSC   r0x101E,0
                      00475 ;; >>> /home/sdcc-builder/build/sdcc-build/orig/sdcc/src/pic14/gen.c:5584:SetIrp
0045   1783           00476         BSF     STATUS,7
                      00477 ;; ***  genNearPointerGet  5988
                      00478 ;; >>> /home/sdcc-builder/build/sdcc-build/orig/sdcc/src/pic14/gen.c:5995:genNearPointerGet
0046   1283 1303      00479         BANKSEL INDF
0048   0800           00480         MOVF    INDF,W
                      00481 ;; >>> /home/sdcc-builder/build/sdcc-build/orig/sdcc/src/pic14/gen.c:6002:genNearPointerGet
                      00482 ;;      1109 rIdx = r0x105F 
0049   ???? ????      00483         BANKSEL r0x101F
004B   00??           00484         MOVWF   r0x101F
                      00485 ;;; /home/sdcc-builder/build/sdcc-build/orig/sdcc/src/pic14/gen.c:2316:resultRemat *{*
                      00486 ;;; /home/sdcc-builder/build/sdcc-build/orig/sdcc/src/pic14/gen.c:6686:genPointerSet *{*
                      00487 ;; ***  genPointerSet  6687
                      00488 ;;; /home/sdcc-builder/build/sdcc-build/orig/sdcc/src/pic14/gen.c:6505:genNearPointerSet *{*
                      00489 ;; ***  genNearPointerSet  6506
                      00490 ;;      694 register type nRegs=2
                      00491 ;; ***  genNearPointerSet  6521
                      00492 ;;      694 register type nRegs=1
                      00493 ;;      line = 6523 result AOP_REG=r0x105A, size=2, left -=-, size=0, right AOP_REG=r0x105F, size=1
                      00494 ;;; /home/sdcc-builder/build/sdcc-build/orig/sdcc/src/pic14/gen.c:1343:mov2w_op *{*
                      00495 ;; ***  mov2w  1381  offset=0
                      00496 ;; >>> /home/sdcc-builder/build/sdcc-build/orig/sdcc/src/pic14/gen.c:1386:mov2w
                      00497 ;;      1109 rIdx = r0x105A 
004C   08??           00498         MOVF    r0x101A,W
                      00499 ;; >>> /home/sdcc-builder/build/sdcc-build/orig/sdcc/src/pic14/gen.c:5602:setup_fsr
004D   1283 1303      00500         BANKSEL FSR
004F   0084           00501         MOVWF   FSR
                      00502 ;;; /home/sdcc-builder/build/sdcc-build/orig/sdcc/src/pic14/gen.c:5553:SetIrp *{*
                      00503 ;; >>> /home/sdcc-builder/build/sdcc-build/orig/sdcc/src/pic14/gen.c:5580:SetIrp
0050   1383           00504         BCF     STATUS,7
                      00505 ;; >>> /home/sdcc-builder/build/sdcc-build/orig/sdcc/src/pic14/gen.c:5583:SetIrp
0051   ???? ????      00506         BANKSEL r0x101B
0053   18??           00507         BTFSC   r0x101B,0
                      00508 ;; >>> /home/sdcc-builder/build/sdcc-build/orig/sdcc/src/pic14/gen.c:5584:SetIrp
0054   1783           00509         BSF     STATUS,7
                      00510 ;; ***  genNearPointerSet  6548
                      00511 ;; >>> /home/sdcc-builder/build/sdcc-build/orig/sdcc/src/pic14/gen.c:6564:genNearPointerSet
                      00512 ;;      1109 rIdx = r0x105F 
gpasm-1.4.0 #1106 (Oct  6 2014) obj\Debug\But   5-1-2022  15:39:59          PAGE 11


LOC    OBJECT CODE    LINE  SOURCE TEXT
  VALUE

0055   08??           00513         MOVF    r0x101F,W
                      00514 ;; >>> /home/sdcc-builder/build/sdcc-build/orig/sdcc/src/pic14/gen.c:6569:genNearPointerSet
0056   1283 1303      00515         BANKSEL INDF
0058   0080           00516         MOVWF   INDF
                      00517 ;; ***  genNearPointerSet  6577
                      00518 ;; ***  genNearPointerSet  6603
                      00519 ;;; /home/sdcc-builder/build/sdcc-build/orig/sdcc/src/pic14/gen.c:2316:resultRemat *{*
                      00520 ;;; /home/sdcc-builder/build/sdcc-build/orig/sdcc/src/pic14/gen.c:6927:genAssign *{*
                      00521 ;; ***  genAssign  6928
                      00522 ;;      694 register type nRegs=1
                      00523 ;;      694 register type nRegs=1
                      00524 ;;      line = 6937 result AOP_REG=r0x1057, size=1, left -=-, size=0, right AOP_REG=r0x105C, size=1
                      00525 ;; ***  genAssign  7023
                      00526 ;;; /home/sdcc-builder/build/sdcc-build/orig/sdcc/src/pic14/gen.c:1343:mov2w_op *{*
                      00527 ;; ***  mov2w  1381  offset=0
                      00528 ;; >>> /home/sdcc-builder/build/sdcc-build/orig/sdcc/src/pic14/gen.c:1386:mov2w
                      00529 ;;      1109 rIdx = r0x105C 
                      00530         .line   89; "Button.c"  for(sample_index = 0; sample_index < N_SAMPLES-1; sample_index++)
0059   ???? ????      00531         BANKSEL r0x101C
005B   08??           00532         MOVF    r0x101C,W
                      00533 ;; >>> /home/sdcc-builder/build/sdcc-build/orig/sdcc/src/pic14/gen.c:7050:genAssign
                      00534 ;;      1109 rIdx = r0x1057 
005C   00??           00535         MOVWF   r0x1017
                      00536 ;;; /home/sdcc-builder/build/sdcc-build/orig/sdcc/src/pic14/gen.c:2316:resultRemat *{*
                      00537 ;;; /home/sdcc-builder/build/sdcc-build/orig/sdcc/src/pic14/gen.c:3583:genCmpLt *{*
                      00538 ;; ***  genCmpLt  3584
                      00539 ;;      694 register type nRegs=1
                      00540 ;;; /home/sdcc-builder/build/sdcc-build/orig/sdcc/src/pic14/gen.c:3294:genCmp *{*
                      00541 ;;unsigned compare: left < lit(0x4=4), size=1
                      00542 ;; >>> /home/sdcc-builder/build/sdcc-build/orig/sdcc/src/pic14/gen.c:3265:pic14_mov2w_regOrLit
005D   3004           00543         MOVLW   0x04
                      00544 ;; >>> /home/sdcc-builder/build/sdcc-build/orig/sdcc/src/pic14/gen.c:3432:genCmp
                      00545 ;;      1109 rIdx = r0x1057 
005E   02??           00546         SUBWF   r0x1017,W
                      00547 ;;; /home/sdcc-builder/build/sdcc-build/orig/sdcc/src/pic14/gen.c:3237:genSkipc *{*
                      00548 ;; >>> /home/sdcc-builder/build/sdcc-build/orig/sdcc/src/pic14/gen.c:3244:genSkipc
005F   1C03           00549         BTFSS   STATUS,0
                      00550 ;; >>> /home/sdcc-builder/build/sdcc-build/orig/sdcc/src/pic14/gen.c:3246:genSkipc
                      00551 ;; ***  popGetLabel  key=33, label offset 21
0060   2???           00552         GOTO    _00154_DS_
                      00553 ;;genSkipc:3247: created from rifx:027A5DF4
                      00554 ;;; /home/sdcc-builder/build/sdcc-build/orig/sdcc/src/pic14/gen.c:2316:resultRemat *{*
                      00555 ;;; /home/sdcc-builder/build/sdcc-build/orig/sdcc/src/pic14/gen.c:2316:resultRemat *{*
                      00556 ;;; /home/sdcc-builder/build/sdcc-build/orig/sdcc/src/pic14/gen.c:7120:genCast *{*
                      00557 ;; ***  genCast  7121
                      00558 ;;      694 register type nRegs=1
                      00559 ;;      694 register type nRegs=1
                      00560 ;;      line = 7129 result AOP_REG=r0x105A, size=1, left -=-, size=0, right AOP_REG=r0x1056, size=1
                      00561 ;; ***  genCast  7253
                      00562 ;; >>> /home/sdcc-builder/build/sdcc-build/orig/sdcc/src/pic14/gen.c:7277:genCast
                      00563 ;;      1109 rIdx = r0x1056 
                      00564         .line   93; "Button.c"  switch(current_SW)
0061   08??           00565         MOVF    r0x1016,W
gpasm-1.4.0 #1106 (Oct  6 2014) obj\Debug\But   5-1-2022  15:39:59          PAGE 12


LOC    OBJECT CODE    LINE  SOURCE TEXT
  VALUE

0062   00??           00566         MOVWF   r0x101A
0063   1903           00567         BTFSC   STATUS,2
0064   2???           00568         GOTO    _00125_DS_
0065   08??           00569         MOVF    r0x1016,W
0066   3A01           00570         XORLW   0x01
0067   1903           00571         BTFSC   STATUS,2
0068   2???           00572         GOTO    _00126_DS_
0069   2???           00573         GOTO    _00128_DS_
006A                  00574 _00125_DS_
                      00575         .line   97; "Button.c"  SWs_Info[current_SW].sw_samples[sample_index] = GPIO_ReadPortPin(SW_INCR
                            EMENT_PORT_DR, SW_INCREMENT_PIN);
006A   ???? ????      00576         BANKSEL r0x1017
006C   08??           00577         MOVF    r0x1017,W
                      00578 ;; >>> /home/sdcc-builder/build/sdcc-build/orig/sdcc/src/pic14/genarith.c:735:genPlus
                      00579 ;;      1109 rIdx = r0x1058 
006D   07??           00580         ADDWF   r0x1018,W
                      00581 ;; >>> /home/sdcc-builder/build/sdcc-build/orig/sdcc/src/pic14/genarith.c:736:genPlus
                      00582 ;;      1109 rIdx = r0x105A 
006E   00??           00583         MOVWF   r0x101A
                      00584 ;; >>> /home/sdcc-builder/build/sdcc-build/orig/sdcc/src/pic14/genarith.c:799:genPlus
                      00585 ;;      1109 rIdx = r0x1059 
006F   08??           00586         MOVF    r0x1019,W
                      00587 ;; >>> /home/sdcc-builder/build/sdcc-build/orig/sdcc/src/pic14/genarith.c:800:genPlus
0070   1803           00588         BTFSC   STATUS,0
                      00589 ;; >>> /home/sdcc-builder/build/sdcc-build/orig/sdcc/src/pic14/genarith.c:801:genPlus
0071   3E01           00590         ADDLW   0x01
                      00591 ;; >>> /home/sdcc-builder/build/sdcc-build/orig/sdcc/src/pic14/genarith.c:802:genPlus
                      00592 ;;      1109 rIdx = r0x105B 
0072   00??           00593         MOVWF   r0x101B
                      00594 ;;; /home/sdcc-builder/build/sdcc-build/orig/sdcc/src/pic14/gen.c:2316:resultRemat *{*
                      00595 ;;; /home/sdcc-builder/build/sdcc-build/orig/sdcc/src/pic14/gen.c:3919:genAnd *{*
                      00596 ;; ***  genAnd  3920
                      00597 ;; ***  aopForSym 315
                      00598 ;;      327 sym->rname = _PORTB, size = 1
                      00599 ;;      694 register type nRegs=1
                      00600 ;;      line = 3955 result AOP_REG=r0x105C, size=1, left AOP_DIR=_PORTB, size=1, right AOP_LIT=0x01, siz
                            e=1
                      00601 ;; >>> /home/sdcc-builder/build/sdcc-build/orig/sdcc/src/pic14/gen.c:4190:genAnd
0073   3001           00602         MOVLW   0x01
                      00603 ;; >>> /home/sdcc-builder/build/sdcc-build/orig/sdcc/src/pic14/gen.c:4191:genAnd
                      00604 ;;      1009
                      00605 ;;      1024  _PORTB   offset=0 - had to alloc by reg name
0074   ???? ????      00606         BANKSEL _PORTB
0076   05??           00607         ANDWF   _PORTB,W
                      00608 ;; >>> /home/sdcc-builder/build/sdcc-build/orig/sdcc/src/pic14/gen.c:4192:genAnd
                      00609 ;;      1109 rIdx = r0x105C 
0077   ???? ????      00610         BANKSEL r0x101C
0079   00??           00611         MOVWF   r0x101C
007A   00??           00612         MOVWF   r0x101D
                      00613 ;; ***  addSign  861
                      00614 ;;; /home/sdcc-builder/build/sdcc-build/orig/sdcc/src/pic14/genarith.c:862:addSign *{*
                      00615 ;;; /home/sdcc-builder/build/sdcc-build/orig/sdcc/src/pic14/gen.c:2316:resultRemat *{*
                      00616 ;;; /home/sdcc-builder/build/sdcc-build/orig/sdcc/src/pic14/gen.c:6686:genPointerSet *{*
gpasm-1.4.0 #1106 (Oct  6 2014) obj\Debug\But   5-1-2022  15:39:59          PAGE 13


LOC    OBJECT CODE    LINE  SOURCE TEXT
  VALUE

                      00617 ;; ***  genPointerSet  6687
                      00618 ;;; /home/sdcc-builder/build/sdcc-build/orig/sdcc/src/pic14/gen.c:6505:genNearPointerSet *{*
                      00619 ;; ***  genNearPointerSet  6506
                      00620 ;;      694 register type nRegs=2
                      00621 ;; ***  genNearPointerSet  6521
                      00622 ;;      line = 6523 result AOP_REG=r0x105A, size=2, left -=-, size=0, right AOP_REG=r0x105D, size=1
                      00623 ;;; /home/sdcc-builder/build/sdcc-build/orig/sdcc/src/pic14/gen.c:1343:mov2w_op *{*
                      00624 ;; ***  mov2w  1381  offset=0
                      00625 ;; >>> /home/sdcc-builder/build/sdcc-build/orig/sdcc/src/pic14/gen.c:1386:mov2w
                      00626 ;;      1109 rIdx = r0x105A 
007B   08??           00627         MOVF    r0x101A,W
                      00628 ;; >>> /home/sdcc-builder/build/sdcc-build/orig/sdcc/src/pic14/gen.c:5602:setup_fsr
007C   1283 1303      00629         BANKSEL FSR
007E   0084           00630         MOVWF   FSR
                      00631 ;;; /home/sdcc-builder/build/sdcc-build/orig/sdcc/src/pic14/gen.c:5553:SetIrp *{*
                      00632 ;; >>> /home/sdcc-builder/build/sdcc-build/orig/sdcc/src/pic14/gen.c:5580:SetIrp
007F   1383           00633         BCF     STATUS,7
                      00634 ;; >>> /home/sdcc-builder/build/sdcc-build/orig/sdcc/src/pic14/gen.c:5583:SetIrp
0080   ???? ????      00635         BANKSEL r0x101B
0082   18??           00636         BTFSC   r0x101B,0
                      00637 ;; >>> /home/sdcc-builder/build/sdcc-build/orig/sdcc/src/pic14/gen.c:5584:SetIrp
0083   1783           00638         BSF     STATUS,7
                      00639 ;; ***  genNearPointerSet  6548
                      00640 ;; >>> /home/sdcc-builder/build/sdcc-build/orig/sdcc/src/pic14/gen.c:6564:genNearPointerSet
                      00641 ;;      1109 rIdx = r0x105D 
0084   08??           00642         MOVF    r0x101D,W
                      00643 ;; >>> /home/sdcc-builder/build/sdcc-build/orig/sdcc/src/pic14/gen.c:6569:genNearPointerSet
0085   1283 1303      00644         BANKSEL INDF
0087   0080           00645         MOVWF   INDF
                      00646 ;; ***  genNearPointerSet  6577
                      00647 ;; ***  genNearPointerSet  6603
                      00648 ;;; /home/sdcc-builder/build/sdcc-build/orig/sdcc/src/pic14/gen.c:2316:resultRemat *{*
                      00649 ;;; /home/sdcc-builder/build/sdcc-build/orig/sdcc/src/pic14/gen.c:2778:genGoto *{*
                      00650 ;; >>> /home/sdcc-builder/build/sdcc-build/orig/sdcc/src/pic14/gen.c:2780:genGoto
                      00651 ;; ***  popGetLabel  key=7, label offset 21
                      00652         .line   98; "Button.c"  break;
0088   2???           00653         GOTO    _00128_DS_
                      00654 ;;; /home/sdcc-builder/build/sdcc-build/orig/sdcc/src/pic14/gen.c:2316:resultRemat *{*
                      00655 ;;; /home/sdcc-builder/build/sdcc-build/orig/sdcc/src/pic14/gen.c:2760:genLabel *{*
                      00656 ;; ***  genLabel  2763
                      00657 ;;; /home/sdcc-builder/build/sdcc-build/orig/sdcc/src/pic14/gen.c:2316:resultRemat *{*
                      00658 ;; ***  genPlus  611
                      00659 ;;; /home/sdcc-builder/build/sdcc-build/orig/sdcc/src/pic14/genarith.c:612:genPlus *{*
                      00660 ;;      694 register type nRegs=2
                      00661 ;;      694 register type nRegs=1
                      00662 ;;      694 register type nRegs=2
                      00663 ;;      line = 618 result AOP_REG=r0x1057, size=2, left AOP_REG=r0x1058, size=2, right AOP_REG=r0x1057, 
                            size=1
                      00664 ;;; /home/sdcc-builder/build/sdcc-build/orig/sdcc/src/pic14/genarith.c:142:genPlusIncr *{*
                      00665 ;; ***  genPlusIncr  144
                      00666 ;;      result AOP_REG, left AOP_REG, right AOP_REG
                      00667 ;; ***  genPlus  717
                      00668 ;; >>> /home/sdcc-builder/build/sdcc-build/orig/sdcc/src/pic14/genarith.c:726:genPlus
gpasm-1.4.0 #1106 (Oct  6 2014) obj\Debug\But   5-1-2022  15:39:59          PAGE 14


LOC    OBJECT CODE    LINE  SOURCE TEXT
  VALUE

                      00669 ;;      1109 rIdx = r0x1057 
0089                  00670 _00126_DS_
                      00671         .line   100; "Button.c" SWs_Info[current_SW].sw_samples[sample_index] = GPIO_ReadPortPin(SW_RESE
                            T_PORT_DR, SW_RESET_PIN);
0089   ???? ????      00672         BANKSEL r0x1017
008B   08??           00673         MOVF    r0x1017,W
                      00674 ;; >>> /home/sdcc-builder/build/sdcc-build/orig/sdcc/src/pic14/genarith.c:735:genPlus
                      00675 ;;      1109 rIdx = r0x1058 
008C   07??           00676         ADDWF   r0x1018,W
                      00677 ;; >>> /home/sdcc-builder/build/sdcc-build/orig/sdcc/src/pic14/genarith.c:736:genPlus
                      00678 ;;      1109 rIdx = r0x1057 
008D   00??           00679         MOVWF   r0x1017
                      00680 ;; >>> /home/sdcc-builder/build/sdcc-build/orig/sdcc/src/pic14/genarith.c:799:genPlus
                      00681 ;;      1109 rIdx = r0x1059 
008E   08??           00682         MOVF    r0x1019,W
                      00683 ;; >>> /home/sdcc-builder/build/sdcc-build/orig/sdcc/src/pic14/genarith.c:800:genPlus
008F   1803           00684         BTFSC   STATUS,0
                      00685 ;; >>> /home/sdcc-builder/build/sdcc-build/orig/sdcc/src/pic14/genarith.c:801:genPlus
0090   3E01           00686         ADDLW   0x01
                      00687 ;; >>> /home/sdcc-builder/build/sdcc-build/orig/sdcc/src/pic14/genarith.c:802:genPlus
                      00688 ;;      1109 rIdx = r0x105A 
0091   00??           00689         MOVWF   r0x101A
                      00690 ;;; /home/sdcc-builder/build/sdcc-build/orig/sdcc/src/pic14/gen.c:2316:resultRemat *{*
                      00691 ;;; /home/sdcc-builder/build/sdcc-build/orig/sdcc/src/pic14/gen.c:3919:genAnd *{*
                      00692 ;; ***  genAnd  3920
                      00693 ;; ***  aopForSym 315
                      00694 ;;      327 sym->rname = _PORTB, size = 1
                      00695 ;;      694 register type nRegs=1
                      00696 ;;      line = 3955 result AOP_REG=r0x1058, size=1, left AOP_DIR=_PORTB, size=1, right AOP_LIT=0x02, siz
                            e=1
                      00697 ;; >>> /home/sdcc-builder/build/sdcc-build/orig/sdcc/src/pic14/gen.c:4190:genAnd
0092   3002           00698         MOVLW   0x02
                      00699 ;; >>> /home/sdcc-builder/build/sdcc-build/orig/sdcc/src/pic14/gen.c:4191:genAnd
                      00700 ;;      1009
                      00701 ;;      1028  _PORTB   offset=0
0093   ???? ????      00702         BANKSEL _PORTB
0095   05??           00703         ANDWF   _PORTB,W
                      00704 ;; >>> /home/sdcc-builder/build/sdcc-build/orig/sdcc/src/pic14/gen.c:4192:genAnd
                      00705 ;;      1109 rIdx = r0x1058 
0096   ???? ????      00706         BANKSEL r0x1018
0098   00??           00707         MOVWF   r0x1018
                      00708 ;;; /home/sdcc-builder/build/sdcc-build/orig/sdcc/src/pic14/gen.c:2316:resultRemat *{*
                      00709 ;;; /home/sdcc-builder/build/sdcc-build/orig/sdcc/src/pic14/gen.c:5418:genGenericShift *{*
                      00710 ;; ***  genGenericShift  5421
                      00711 ;;      694 register type nRegs=1
                      00712 ;;      694 register type nRegs=1
                      00713 ;;shiftRight_Left2ResultLit:5273: shCount=1, size=1, sign=0, same=0, offr=0
                      00714 ;; >>> /home/sdcc-builder/build/sdcc-build/orig/sdcc/src/pic14/gen.c:5283:shiftRight_Left2ResultLit
0099   1003           00715         BCF     STATUS,0
                      00716 ;; >>> /home/sdcc-builder/build/sdcc-build/orig/sdcc/src/pic14/gen.c:5297:shiftRight_Left2ResultLit
                      00717 ;;      1109 rIdx = r0x1058 
009A   0C??           00718         RRF     r0x1018,W
                      00719 ;; >>> /home/sdcc-builder/build/sdcc-build/orig/sdcc/src/pic14/gen.c:5298:shiftRight_Left2ResultLit
gpasm-1.4.0 #1106 (Oct  6 2014) obj\Debug\But   5-1-2022  15:39:59          PAGE 15


LOC    OBJECT CODE    LINE  SOURCE TEXT
  VALUE

                      00720 ;;      1109 rIdx = r0x1059 
009B   00??           00721         MOVWF   r0x1019
                      00722 ;; ***  addSign  861
                      00723 ;;; /home/sdcc-builder/build/sdcc-build/orig/sdcc/src/pic14/genarith.c:862:addSign *{*
                      00724 ;;; /home/sdcc-builder/build/sdcc-build/orig/sdcc/src/pic14/gen.c:2316:resultRemat *{*
                      00725 ;;; /home/sdcc-builder/build/sdcc-build/orig/sdcc/src/pic14/gen.c:6686:genPointerSet *{*
                      00726 ;; ***  genPointerSet  6687
                      00727 ;;; /home/sdcc-builder/build/sdcc-build/orig/sdcc/src/pic14/gen.c:6505:genNearPointerSet *{*
                      00728 ;; ***  genNearPointerSet  6506
                      00729 ;;      694 register type nRegs=2
                      00730 ;; ***  genNearPointerSet  6521
                      00731 ;;      line = 6523 result AOP_REG=r0x1057, size=2, left -=-, size=0, right AOP_REG=r0x1059, size=1
                      00732 ;;; /home/sdcc-builder/build/sdcc-build/orig/sdcc/src/pic14/gen.c:1343:mov2w_op *{*
                      00733 ;; ***  mov2w  1381  offset=0
                      00734 ;; >>> /home/sdcc-builder/build/sdcc-build/orig/sdcc/src/pic14/gen.c:1386:mov2w
                      00735 ;;      1109 rIdx = r0x1057 
009C   08??           00736         MOVF    r0x1017,W
                      00737 ;; >>> /home/sdcc-builder/build/sdcc-build/orig/sdcc/src/pic14/gen.c:5602:setup_fsr
009D   1283 1303      00738         BANKSEL FSR
009F   0084           00739         MOVWF   FSR
                      00740 ;;; /home/sdcc-builder/build/sdcc-build/orig/sdcc/src/pic14/gen.c:5553:SetIrp *{*
                      00741 ;; >>> /home/sdcc-builder/build/sdcc-build/orig/sdcc/src/pic14/gen.c:5580:SetIrp
00A0   1383           00742         BCF     STATUS,7
                      00743 ;; >>> /home/sdcc-builder/build/sdcc-build/orig/sdcc/src/pic14/gen.c:5583:SetIrp
00A1   ???? ????      00744         BANKSEL r0x101A
00A3   18??           00745         BTFSC   r0x101A,0
                      00746 ;; >>> /home/sdcc-builder/build/sdcc-build/orig/sdcc/src/pic14/gen.c:5584:SetIrp
00A4   1783           00747         BSF     STATUS,7
                      00748 ;; ***  genNearPointerSet  6548
                      00749 ;; >>> /home/sdcc-builder/build/sdcc-build/orig/sdcc/src/pic14/gen.c:6564:genNearPointerSet
                      00750 ;;      1109 rIdx = r0x1059 
00A5   08??           00751         MOVF    r0x1019,W
                      00752 ;; >>> /home/sdcc-builder/build/sdcc-build/orig/sdcc/src/pic14/gen.c:6569:genNearPointerSet
00A6   1283 1303      00753         BANKSEL INDF
00A8   0080           00754         MOVWF   INDF
                      00755 ;; ***  genNearPointerSet  6577
                      00756 ;; ***  genNearPointerSet  6603
                      00757 ;;; /home/sdcc-builder/build/sdcc-build/orig/sdcc/src/pic14/gen.c:2316:resultRemat *{*
                      00758 ;;; /home/sdcc-builder/build/sdcc-build/orig/sdcc/src/pic14/gen.c:2760:genLabel *{*
                      00759 ;; ***  genLabel  2763
                      00760 ;;; /home/sdcc-builder/build/sdcc-build/orig/sdcc/src/pic14/gen.c:2316:resultRemat *{*
                      00761 ;;; /home/sdcc-builder/build/sdcc-build/orig/sdcc/src/pic14/gen.c:2878:genMult *{*
                      00762 ;; ***  genMult  2880
                      00763 ;;      694 register type nRegs=1
                      00764 ;;      694 register type nRegs=2
                      00765 ;;      line = 2886 result AOP_REG=r0x1057, size=2, left AOP_REG=r0x1056, size=1, right AOP_LIT=0x0a, si
                            ze=1
                      00766 ;;; /home/sdcc-builder/build/sdcc-build/orig/sdcc/src/pic14/gen.c:2816:genMultOneByte *{*
                      00767 ;; ***  genMultOneByte  2818
                      00768 ;;      line = 2819 result AOP_REG=r0x1057, size=2, left AOP_REG=r0x1056, size=1, right AOP_LIT=0x0a, si
                            ze=1
                      00769 ;;      line = 2820, signs: result AOP_REG=u, left AOP_REG=u, right AOP_LIT=u
                      00770 ;; ***  mov2w  1381  offset=0
gpasm-1.4.0 #1106 (Oct  6 2014) obj\Debug\But   5-1-2022  15:39:59          PAGE 16


LOC    OBJECT CODE    LINE  SOURCE TEXT
  VALUE

                      00771 ;; >>> /home/sdcc-builder/build/sdcc-build/orig/sdcc/src/pic14/gen.c:1384:mov2w
00A9                  00772 _00128_DS_
                      00773         .line   110; "Button.c" switch(SWs_Info[current_SW].sw_state)
00A9   300A           00774         MOVLW   0x0a
                      00775 ;; >>> /home/sdcc-builder/build/sdcc-build/orig/sdcc/src/pic14/gen.c:2840:genMultOneByte
                      00776 ;; ***  popRegFromIdx,1042  , rIdx=0x7f
00AA   00??           00777         MOVWF   STK00
                      00778 ;; ***  mov2w  1381  offset=0
                      00779 ;; >>> /home/sdcc-builder/build/sdcc-build/orig/sdcc/src/pic14/gen.c:1386:mov2w
                      00780 ;;      1109 rIdx = r0x1056 
00AB   ???? ????      00781         BANKSEL r0x1016
00AD   08??           00782         MOVF    r0x1016,W
                      00783 ;; >>> /home/sdcc-builder/build/sdcc-build/orig/sdcc/src/pic14/gen.c:1433:call_libraryfunc
00AE   ???? ????      00784         PAGESEL __mulchar
                      00785 ;; >>> /home/sdcc-builder/build/sdcc-build/orig/sdcc/src/pic14/gen.c:1435:call_libraryfunc
00B0   2???           00786         CALL    __mulchar
                      00787 ;; >>> /home/sdcc-builder/build/sdcc-build/orig/sdcc/src/pic14/gen.c:1437:call_libraryfunc
00B1   ???? ????      00788         PAGESEL $
                      00789 ;; >>> /home/sdcc-builder/build/sdcc-build/orig/sdcc/src/pic14/gen.c:1393:movwf
                      00790 ;;      1109 rIdx = r0x1057 
00B3   ???? ????      00791         BANKSEL r0x1017
00B5   00??           00792         MOVWF   r0x1017
                      00793 ;; ***  addSign  861
                      00794 ;;; /home/sdcc-builder/build/sdcc-build/orig/sdcc/src/pic14/genarith.c:862:addSign *{*
                      00795 ;; >>> /home/sdcc-builder/build/sdcc-build/orig/sdcc/src/pic14/genarith.c:881:addSign
                      00796 ;;      1109 rIdx = r0x1058 
00B6   01??           00797         CLRF    r0x1018
                      00798 ;;; /home/sdcc-builder/build/sdcc-build/orig/sdcc/src/pic14/gen.c:2316:resultRemat *{*
                      00799 ;; ***  genPlus  611
                      00800 ;;; /home/sdcc-builder/build/sdcc-build/orig/sdcc/src/pic14/genarith.c:612:genPlus *{*
                      00801 ;;      613
                      00802 ;;      aopForRemat 392
                      00803 ;;      418: rname _SWs_Info, val 0, const = 0
                      00804 ;;      694 register type nRegs=2
                      00805 ;;      694 register type nRegs=2
                      00806 ;;      833: aopGet AOP_PCODE type PO_IMMEDIATE
                      00807 ;;      _SWs_Info
                      00808 ;;      line = 618 result AOP_REG=r0x1057, size=2, left AOP_PCODE=_SWs_Info, size=2, right AOP_REG=r0x10
                            57, size=2
                      00809 ;;; /home/sdcc-builder/build/sdcc-build/orig/sdcc/src/pic14/genarith.c:142:genPlusIncr *{*
                      00810 ;; ***  genPlusIncr  144
                      00811 ;;      result AOP_REG, left AOP_PCODE, right AOP_REG
                      00812 ;; ***  genPlus  717
                      00813 ;;      833: aopGet AOP_PCODE type PO_IMMEDIATE
                      00814 ;;      _SWs_Info
                      00815 ;; >>> /home/sdcc-builder/build/sdcc-build/orig/sdcc/src/pic14/genarith.c:726:genPlus
                      00816 ;;      1109 rIdx = r0x1057 
00B7   08??           00817         MOVF    r0x1017,W
                      00818 ;; >>> /home/sdcc-builder/build/sdcc-build/orig/sdcc/src/pic14/genarith.c:735:genPlus
00B8   3E??           00819         ADDLW   (_SWs_Info + 0)
                      00820 ;; >>> /home/sdcc-builder/build/sdcc-build/orig/sdcc/src/pic14/genarith.c:736:genPlus
                      00821 ;;      1109 rIdx = r0x1057 
00B9   00??           00822         MOVWF   r0x1017
gpasm-1.4.0 #1106 (Oct  6 2014) obj\Debug\But   5-1-2022  15:39:59          PAGE 17


LOC    OBJECT CODE    LINE  SOURCE TEXT
  VALUE

                      00823 ;; >>> /home/sdcc-builder/build/sdcc-build/orig/sdcc/src/pic14/genarith.c:749:genPlus
                      00824 ;;      1109 rIdx = r0x1058 
00BA   3000           00825         MOVLW   0x00
                      00826 ;; >>> /home/sdcc-builder/build/sdcc-build/orig/sdcc/src/pic14/genarith.c:750:genPlus
00BB   1803           00827         BTFSC   STATUS,0
                      00828 ;; >>> /home/sdcc-builder/build/sdcc-build/orig/sdcc/src/pic14/genarith.c:751:genPlus
                      00829 ;;      1109 rIdx = r0x1058 
00BC   0F??           00830         INCFSZ  r0x1018,W
                      00831 ;; >>> /home/sdcc-builder/build/sdcc-build/orig/sdcc/src/pic14/genarith.c:752:genPlus
00BD   3E??           00832         ADDLW   high (_SWs_Info + 0)
                      00833 ;; >>> /home/sdcc-builder/build/sdcc-build/orig/sdcc/src/pic14/genarith.c:753:genPlus
                      00834 ;;      1109 rIdx = r0x1058 
00BE   00??           00835         MOVWF   r0x1018
                      00836 ;;; /home/sdcc-builder/build/sdcc-build/orig/sdcc/src/pic14/gen.c:2316:resultRemat *{*
                      00837 ;; ***  genPlus  611
                      00838 ;;; /home/sdcc-builder/build/sdcc-build/orig/sdcc/src/pic14/genarith.c:612:genPlus *{*
                      00839 ;;      694 register type nRegs=2
                      00840 ;;      694 register type nRegs=2
                      00841 ;;      line = 618 result AOP_REG=r0x1059, size=2, left AOP_REG=r0x1057, size=2, right AOP_LIT=0x05, siz
                            e=1
                      00842 ;;; /home/sdcc-builder/build/sdcc-build/orig/sdcc/src/pic14/genarith.c:142:genPlusIncr *{*
                      00843 ;; ***  genPlusIncr  144
                      00844 ;;      result AOP_REG, left AOP_REG, right AOP_LIT
                      00845 ;;      genPlusIncr  156
                      00846 ;;      adding lit to something. size 2
                      00847 ;;; /home/sdcc-builder/build/sdcc-build/orig/sdcc/src/pic14/genarith.c:269:genAddLit *{*
                      00848 ;; ***  genAddLit  270
                      00849 ;;  left and result aren't same genAddLit  514
                      00850 ;; >>> /home/sdcc-builder/build/sdcc-build/orig/sdcc/src/pic14/genarith.c:546:genAddLit
00BF   3005           00851         MOVLW   0x05
                      00852 ;; >>> /home/sdcc-builder/build/sdcc-build/orig/sdcc/src/pic14/genarith.c:547:genAddLit
                      00853 ;;      1109 rIdx = r0x1057 
00C0   07??           00854         ADDWF   r0x1017,W
                      00855 ;;; /home/sdcc-builder/build/sdcc-build/orig/sdcc/src/pic14/genarith.c:253:emitMOVWF *{*
                      00856 ;; >>> /home/sdcc-builder/build/sdcc-build/orig/sdcc/src/pic14/genarith.c:257:emitMOVWF
                      00857 ;;      1109 rIdx = r0x1059 
00C1   00??           00858         MOVWF   r0x1019
                      00859 ;; >>> /home/sdcc-builder/build/sdcc-build/orig/sdcc/src/pic14/genarith.c:584:genAddLit
                      00860 ;;      1109 rIdx = r0x105A 
00C2   01??           00861         CLRF    r0x101A
                      00862 ;; >>> /home/sdcc-builder/build/sdcc-build/orig/sdcc/src/pic14/genarith.c:585:genAddLit
                      00863 ;;      1109 rIdx = r0x105A 
00C3   0D??           00864         RLF     r0x101A,F
                      00865 ;; >>> /home/sdcc-builder/build/sdcc-build/orig/sdcc/src/pic14/genarith.c:586:genAddLit
                      00866 ;;      1109 rIdx = r0x1058 
00C4   08??           00867         MOVF    r0x1018,W
                      00868 ;; >>> /home/sdcc-builder/build/sdcc-build/orig/sdcc/src/pic14/genarith.c:587:genAddLit
                      00869 ;;      1109 rIdx = r0x105A 
00C5   07??           00870         ADDWF   r0x101A,F
                      00871 ;; ***  addSign  861
                      00872 ;;; /home/sdcc-builder/build/sdcc-build/orig/sdcc/src/pic14/genarith.c:862:addSign *{*
                      00873 ;;; /home/sdcc-builder/build/sdcc-build/orig/sdcc/src/pic14/gen.c:2316:resultRemat *{*
                      00874 ;;; /home/sdcc-builder/build/sdcc-build/orig/sdcc/src/pic14/gen.c:6162:genPointerGet *{*
gpasm-1.4.0 #1106 (Oct  6 2014) obj\Debug\But   5-1-2022  15:39:59          PAGE 18


LOC    OBJECT CODE    LINE  SOURCE TEXT
  VALUE

                      00875 ;; ***  genPointerGet  6163
                      00876 ;;; /home/sdcc-builder/build/sdcc-build/orig/sdcc/src/pic14/gen.c:5944:genNearPointerGet *{*
                      00877 ;; ***  genNearPointerGet  5945
                      00878 ;;      694 register type nRegs=2
                      00879 ;; ***  genNearPointerGet  5961
                      00880 ;;      694 register type nRegs=1
                      00881 ;;; /home/sdcc-builder/build/sdcc-build/orig/sdcc/src/pic14/gen.c:1343:mov2w_op *{*
                      00882 ;; ***  mov2w  1381  offset=0
                      00883 ;; >>> /home/sdcc-builder/build/sdcc-build/orig/sdcc/src/pic14/gen.c:1386:mov2w
                      00884 ;;      1109 rIdx = r0x1059 
00C6   08??           00885         MOVF    r0x1019,W
                      00886 ;; >>> /home/sdcc-builder/build/sdcc-build/orig/sdcc/src/pic14/gen.c:5602:setup_fsr
00C7   1283 1303      00887         BANKSEL FSR
00C9   0084           00888         MOVWF   FSR
                      00889 ;;; /home/sdcc-builder/build/sdcc-build/orig/sdcc/src/pic14/gen.c:5553:SetIrp *{*
                      00890 ;; >>> /home/sdcc-builder/build/sdcc-build/orig/sdcc/src/pic14/gen.c:5580:SetIrp
00CA   1383           00891         BCF     STATUS,7
                      00892 ;; >>> /home/sdcc-builder/build/sdcc-build/orig/sdcc/src/pic14/gen.c:5583:SetIrp
00CB   ???? ????      00893         BANKSEL r0x101A
00CD   18??           00894         BTFSC   r0x101A,0
                      00895 ;; >>> /home/sdcc-builder/build/sdcc-build/orig/sdcc/src/pic14/gen.c:5584:SetIrp
00CE   1783           00896         BSF     STATUS,7
                      00897 ;; ***  genNearPointerGet  5988
                      00898 ;; >>> /home/sdcc-builder/build/sdcc-build/orig/sdcc/src/pic14/gen.c:5995:genNearPointerGet
00CF   1283 1303      00899         BANKSEL INDF
00D1   0800           00900         MOVF    INDF,W
                      00901 ;; >>> /home/sdcc-builder/build/sdcc-build/orig/sdcc/src/pic14/gen.c:6002:genNearPointerGet
                      00902 ;;      1109 rIdx = r0x105B 
00D2   ???? ????      00903         BANKSEL r0x101B
00D4   00??           00904         MOVWF   r0x101B
                      00905 ;;; /home/sdcc-builder/build/sdcc-build/orig/sdcc/src/pic14/gen.c:2316:resultRemat *{*
                      00906 ;;; /home/sdcc-builder/build/sdcc-build/orig/sdcc/src/pic14/gen.c:3547:genCmpGt *{*
                      00907 ;; ***  genCmpGt  3548
                      00908 ;;      694 register type nRegs=1
                      00909 ;;; /home/sdcc-builder/build/sdcc-build/orig/sdcc/src/pic14/gen.c:3294:genCmp *{*
                      00910 ;;swapping arguments (AOP_TYPEs 1/2)
                      00911 ;;unsigned compare: left >= lit(0x4=4), size=1
                      00912 ;; >>> /home/sdcc-builder/build/sdcc-build/orig/sdcc/src/pic14/gen.c:3265:pic14_mov2w_regOrLit
00D5   3004           00913         MOVLW   0x04
                      00914 ;; >>> /home/sdcc-builder/build/sdcc-build/orig/sdcc/src/pic14/gen.c:3432:genCmp
                      00915 ;;      1109 rIdx = r0x105B 
00D6   02??           00916         SUBWF   r0x101B,W
                      00917 ;;; /home/sdcc-builder/build/sdcc-build/orig/sdcc/src/pic14/gen.c:3237:genSkipc *{*
                      00918 ;; >>> /home/sdcc-builder/build/sdcc-build/orig/sdcc/src/pic14/gen.c:3242:genSkipc
00D7   1803           00919         BTFSC   STATUS,0
                      00920 ;; >>> /home/sdcc-builder/build/sdcc-build/orig/sdcc/src/pic14/gen.c:3246:genSkipc
                      00921 ;; ***  popGetLabel  key=36, label offset 21
00D8   2???           00922         GOTO    _00157_DS_
                      00923 ;;genSkipc:3247: created from rifx:027A5DF4
                      00924 ;;; /home/sdcc-builder/build/sdcc-build/orig/sdcc/src/pic14/gen.c:2316:resultRemat *{*
                      00925 ;;; /home/sdcc-builder/build/sdcc-build/orig/sdcc/src/pic14/gen.c:2316:resultRemat *{*
                      00926 ;;; /home/sdcc-builder/build/sdcc-build/orig/sdcc/src/pic14/gen.c:7071:genJumpTab *{*
                      00927 ;; ***  genJumpTab  7072
gpasm-1.4.0 #1106 (Oct  6 2014) obj\Debug\But   5-1-2022  15:39:59          PAGE 19


LOC    OBJECT CODE    LINE  SOURCE TEXT
  VALUE

                      00928 ;;      694 register type nRegs=1
                      00929 ;; >>> /home/sdcc-builder/build/sdcc-build/orig/sdcc/src/pic14/gen.c:7087:genJumpTab
                      00930 ;; ***  popGetLabel  key=108, label offset 21
00D9   30??           00931         MOVLW   HIGH(_00229_DS_)
                      00932 ;; >>> /home/sdcc-builder/build/sdcc-build/orig/sdcc/src/pic14/gen.c:7088:genJumpTab
00DA   1283 1303      00933         BANKSEL PCLATH
00DC   008A           00934         MOVWF   PCLATH
                      00935 ;; >>> /home/sdcc-builder/build/sdcc-build/orig/sdcc/src/pic14/gen.c:7089:genJumpTab
                      00936 ;; ***  popGetLabel  key=108, label offset 21
00DD   30??           00937         MOVLW   _00229_DS_
                      00938 ;; >>> /home/sdcc-builder/build/sdcc-build/orig/sdcc/src/pic14/gen.c:7090:genJumpTab
                      00939 ;;      1109 rIdx = r0x105B 
00DE   ???? ????      00940         BANKSEL r0x101B
00E0   07??           00941         ADDWF   r0x101B,W
                      00942 ;; >>> /home/sdcc-builder/build/sdcc-build/orig/sdcc/src/pic14/gen.c:7091:genJumpTab
00E1   1C03           00943         BTFSS   STATUS,0
00E2   2???           00944         GOTO    _00001_DS_
                      00945 ;; >>> /home/sdcc-builder/build/sdcc-build/orig/sdcc/src/pic14/gen.c:7092:genJumpTab
00E3   1283 1303      00946         BANKSEL PCLATH
00E5   0A8A           00947         INCF    PCLATH,F
                      00948 ;; >>> /home/sdcc-builder/build/sdcc-build/orig/sdcc/src/pic14/gen.c:7093:genJumpTab
00E6                  00949 _00001_DS_
00E6   0082           00950         MOVWF   PCL
                      00951 ;; >>> /home/sdcc-builder/build/sdcc-build/orig/sdcc/src/pic14/gen.c:7102:genJumpTab
                      00952 ;; ***  popGetLabel  key=8, label offset 21
00E7                  00953 _00229_DS_
00E7   2???           00954         GOTO    _00129_DS_
                      00955 ;; >>> /home/sdcc-builder/build/sdcc-build/orig/sdcc/src/pic14/gen.c:7102:genJumpTab
                      00956 ;; ***  popGetLabel  key=14, label offset 21
00E8   2???           00957         GOTO    _00135_DS_
                      00958 ;; >>> /home/sdcc-builder/build/sdcc-build/orig/sdcc/src/pic14/gen.c:7102:genJumpTab
                      00959 ;; ***  popGetLabel  key=19, label offset 21
00E9   2???           00960         GOTO    _00140_DS_
                      00961 ;; >>> /home/sdcc-builder/build/sdcc-build/orig/sdcc/src/pic14/gen.c:7102:genJumpTab
                      00962 ;; ***  popGetLabel  key=25, label offset 21
00EA   2???           00963         GOTO    _00146_DS_
                      00964 ;;; /home/sdcc-builder/build/sdcc-build/orig/sdcc/src/pic14/gen.c:2316:resultRemat *{*
                      00965 ;;; /home/sdcc-builder/build/sdcc-build/orig/sdcc/src/pic14/gen.c:2760:genLabel *{*
                      00966 ;; ***  genLabel  2763
                      00967 ;;; /home/sdcc-builder/build/sdcc-build/orig/sdcc/src/pic14/gen.c:2316:resultRemat *{*
                      00968 ;; ***  genPlus  611
                      00969 ;;; /home/sdcc-builder/build/sdcc-build/orig/sdcc/src/pic14/genarith.c:612:genPlus *{*
                      00970 ;;      694 register type nRegs=2
                      00971 ;;      694 register type nRegs=2
                      00972 ;;      line = 618 result AOP_REG=r0x105B, size=2, left AOP_REG=r0x1057, size=2, right AOP_LIT=0x04, siz
                            e=1
                      00973 ;;; /home/sdcc-builder/build/sdcc-build/orig/sdcc/src/pic14/genarith.c:142:genPlusIncr *{*
                      00974 ;; ***  genPlusIncr  144
                      00975 ;;      result AOP_REG, left AOP_REG, right AOP_LIT
                      00976 ;;      genPlusIncr  156
                      00977 ;;      adding lit to something. size 2
                      00978 ;;; /home/sdcc-builder/build/sdcc-build/orig/sdcc/src/pic14/genarith.c:269:genAddLit *{*
                      00979 ;; ***  genAddLit  270
gpasm-1.4.0 #1106 (Oct  6 2014) obj\Debug\But   5-1-2022  15:39:59          PAGE 20


LOC    OBJECT CODE    LINE  SOURCE TEXT
  VALUE

                      00980 ;;  left and result aren't same genAddLit  514
                      00981 ;; >>> /home/sdcc-builder/build/sdcc-build/orig/sdcc/src/pic14/genarith.c:546:genAddLit
00EB                  00982 _00129_DS_
                      00983         .line   114; "Button.c" if ((SWs_Info[current_SW].sw_samples[4] == SW_PRESSED_LEVEL)&&
00EB   3004           00984         MOVLW   0x04
                      00985 ;; >>> /home/sdcc-builder/build/sdcc-build/orig/sdcc/src/pic14/genarith.c:547:genAddLit
                      00986 ;;      1109 rIdx = r0x1057 
00EC   ???? ????      00987         BANKSEL r0x1017
00EE   07??           00988         ADDWF   r0x1017,W
                      00989 ;;; /home/sdcc-builder/build/sdcc-build/orig/sdcc/src/pic14/genarith.c:253:emitMOVWF *{*
                      00990 ;; >>> /home/sdcc-builder/build/sdcc-build/orig/sdcc/src/pic14/genarith.c:257:emitMOVWF
                      00991 ;;      1109 rIdx = r0x105B 
00EF   00??           00992         MOVWF   r0x101B
                      00993 ;; >>> /home/sdcc-builder/build/sdcc-build/orig/sdcc/src/pic14/genarith.c:584:genAddLit
                      00994 ;;      1109 rIdx = r0x105C 
00F0   01??           00995         CLRF    r0x101C
                      00996 ;; >>> /home/sdcc-builder/build/sdcc-build/orig/sdcc/src/pic14/genarith.c:585:genAddLit
                      00997 ;;      1109 rIdx = r0x105C 
00F1   0D??           00998         RLF     r0x101C,F
                      00999 ;; >>> /home/sdcc-builder/build/sdcc-build/orig/sdcc/src/pic14/genarith.c:586:genAddLit
                      01000 ;;      1109 rIdx = r0x1058 
00F2   08??           01001         MOVF    r0x1018,W
                      01002 ;; >>> /home/sdcc-builder/build/sdcc-build/orig/sdcc/src/pic14/genarith.c:587:genAddLit
                      01003 ;;      1109 rIdx = r0x105C 
00F3   07??           01004         ADDWF   r0x101C,F
                      01005 ;; ***  addSign  861
                      01006 ;;; /home/sdcc-builder/build/sdcc-build/orig/sdcc/src/pic14/genarith.c:862:addSign *{*
                      01007 ;;; /home/sdcc-builder/build/sdcc-build/orig/sdcc/src/pic14/gen.c:2316:resultRemat *{*
                      01008 ;;; /home/sdcc-builder/build/sdcc-build/orig/sdcc/src/pic14/gen.c:6162:genPointerGet *{*
                      01009 ;; ***  genPointerGet  6163
                      01010 ;;; /home/sdcc-builder/build/sdcc-build/orig/sdcc/src/pic14/gen.c:5944:genNearPointerGet *{*
                      01011 ;; ***  genNearPointerGet  5945
                      01012 ;;      694 register type nRegs=2
                      01013 ;; ***  genNearPointerGet  5961
                      01014 ;;      694 register type nRegs=1
                      01015 ;;; /home/sdcc-builder/build/sdcc-build/orig/sdcc/src/pic14/gen.c:1343:mov2w_op *{*
                      01016 ;; ***  mov2w  1381  offset=0
                      01017 ;; >>> /home/sdcc-builder/build/sdcc-build/orig/sdcc/src/pic14/gen.c:1386:mov2w
                      01018 ;;      1109 rIdx = r0x105B 
00F4   08??           01019         MOVF    r0x101B,W
                      01020 ;; >>> /home/sdcc-builder/build/sdcc-build/orig/sdcc/src/pic14/gen.c:5602:setup_fsr
00F5   1283 1303      01021         BANKSEL FSR
00F7   0084           01022         MOVWF   FSR
                      01023 ;;; /home/sdcc-builder/build/sdcc-build/orig/sdcc/src/pic14/gen.c:5553:SetIrp *{*
                      01024 ;; >>> /home/sdcc-builder/build/sdcc-build/orig/sdcc/src/pic14/gen.c:5580:SetIrp
00F8   1383           01025         BCF     STATUS,7
                      01026 ;; >>> /home/sdcc-builder/build/sdcc-build/orig/sdcc/src/pic14/gen.c:5583:SetIrp
00F9   ???? ????      01027         BANKSEL r0x101C
00FB   18??           01028         BTFSC   r0x101C,0
                      01029 ;; >>> /home/sdcc-builder/build/sdcc-build/orig/sdcc/src/pic14/gen.c:5584:SetIrp
00FC   1783           01030         BSF     STATUS,7
                      01031 ;; ***  genNearPointerGet  5988
                      01032 ;; >>> /home/sdcc-builder/build/sdcc-build/orig/sdcc/src/pic14/gen.c:5995:genNearPointerGet
gpasm-1.4.0 #1106 (Oct  6 2014) obj\Debug\But   5-1-2022  15:39:59          PAGE 21


LOC    OBJECT CODE    LINE  SOURCE TEXT
  VALUE

00FD   1283 1303      01033         BANKSEL INDF
00FF   0800           01034         MOVF    INDF,W
                      01035 ;; >>> /home/sdcc-builder/build/sdcc-build/orig/sdcc/src/pic14/gen.c:6002:genNearPointerGet
                      01036 ;;      1109 rIdx = r0x105D 
0100   ???? ????      01037         BANKSEL r0x101D
0102   00??           01038         MOVWF   r0x101D
                      01039 ;;; /home/sdcc-builder/build/sdcc-build/orig/sdcc/src/pic14/gen.c:2316:resultRemat *{*
                      01040 ;;; /home/sdcc-builder/build/sdcc-build/orig/sdcc/src/pic14/gen.c:6759:genIfx *{*
                      01041 ;; ***  genIfx  6760
                      01042 ;;      694 register type nRegs=1
                      01043 ;; ***  pic14_toBoolean  1515
                      01044 ;; >>> /home/sdcc-builder/build/sdcc-build/orig/sdcc/src/pic14/gen.c:1522:pic14_toBoolean
0103   08??           01045         MOVF    r0x101D,W
0104   1D03           01046         BTFSS   STATUS,2
                      01047 ;; >>> /home/sdcc-builder/build/sdcc-build/orig/sdcc/src/pic14/gen.c:6809:genIfx
                      01048 ;; ***  popGetLabel  key=36, label offset 21
0105   2???           01049         GOTO    _00157_DS_
                      01050 ;;; /home/sdcc-builder/build/sdcc-build/orig/sdcc/src/pic14/gen.c:2316:resultRemat *{*
                      01051 ;; ***  genPlus  611
                      01052 ;;; /home/sdcc-builder/build/sdcc-build/orig/sdcc/src/pic14/genarith.c:612:genPlus *{*
                      01053 ;;      694 register type nRegs=2
                      01054 ;;      694 register type nRegs=2
                      01055 ;;      line = 618 result AOP_REG=r0x105B, size=2, left AOP_REG=r0x1057, size=2, right AOP_LIT=0x03, siz
                            e=1
                      01056 ;;; /home/sdcc-builder/build/sdcc-build/orig/sdcc/src/pic14/genarith.c:142:genPlusIncr *{*
                      01057 ;; ***  genPlusIncr  144
                      01058 ;;      result AOP_REG, left AOP_REG, right AOP_LIT
                      01059 ;;      genPlusIncr  156
                      01060 ;;      adding lit to something. size 2
                      01061 ;;; /home/sdcc-builder/build/sdcc-build/orig/sdcc/src/pic14/genarith.c:269:genAddLit *{*
                      01062 ;; ***  genAddLit  270
                      01063 ;;  left and result aren't same genAddLit  514
                      01064 ;; >>> /home/sdcc-builder/build/sdcc-build/orig/sdcc/src/pic14/genarith.c:546:genAddLit
                      01065         .line   115; "Button.c" (SWs_Info[current_SW].sw_samples[3] == SW_PRESSED_LEVEL)&&
0106   3003           01066         MOVLW   0x03
                      01067 ;; >>> /home/sdcc-builder/build/sdcc-build/orig/sdcc/src/pic14/genarith.c:547:genAddLit
                      01068 ;;      1109 rIdx = r0x1057 
0107   07??           01069         ADDWF   r0x1017,W
                      01070 ;;; /home/sdcc-builder/build/sdcc-build/orig/sdcc/src/pic14/genarith.c:253:emitMOVWF *{*
                      01071 ;; >>> /home/sdcc-builder/build/sdcc-build/orig/sdcc/src/pic14/genarith.c:257:emitMOVWF
                      01072 ;;      1109 rIdx = r0x105B 
0108   00??           01073         MOVWF   r0x101B
                      01074 ;; >>> /home/sdcc-builder/build/sdcc-build/orig/sdcc/src/pic14/genarith.c:584:genAddLit
                      01075 ;;      1109 rIdx = r0x105C 
0109   01??           01076         CLRF    r0x101C
                      01077 ;; >>> /home/sdcc-builder/build/sdcc-build/orig/sdcc/src/pic14/genarith.c:585:genAddLit
                      01078 ;;      1109 rIdx = r0x105C 
010A   0D??           01079         RLF     r0x101C,F
                      01080 ;; >>> /home/sdcc-builder/build/sdcc-build/orig/sdcc/src/pic14/genarith.c:586:genAddLit
                      01081 ;;      1109 rIdx = r0x1058 
010B   08??           01082         MOVF    r0x1018,W
                      01083 ;; >>> /home/sdcc-builder/build/sdcc-build/orig/sdcc/src/pic14/genarith.c:587:genAddLit
                      01084 ;;      1109 rIdx = r0x105C 
gpasm-1.4.0 #1106 (Oct  6 2014) obj\Debug\But   5-1-2022  15:39:59          PAGE 22


LOC    OBJECT CODE    LINE  SOURCE TEXT
  VALUE

010C   07??           01085         ADDWF   r0x101C,F
                      01086 ;; ***  addSign  861
                      01087 ;;; /home/sdcc-builder/build/sdcc-build/orig/sdcc/src/pic14/genarith.c:862:addSign *{*
                      01088 ;;; /home/sdcc-builder/build/sdcc-build/orig/sdcc/src/pic14/gen.c:2316:resultRemat *{*
                      01089 ;;; /home/sdcc-builder/build/sdcc-build/orig/sdcc/src/pic14/gen.c:6162:genPointerGet *{*
                      01090 ;; ***  genPointerGet  6163
                      01091 ;;; /home/sdcc-builder/build/sdcc-build/orig/sdcc/src/pic14/gen.c:5944:genNearPointerGet *{*
                      01092 ;; ***  genNearPointerGet  5945
                      01093 ;;      694 register type nRegs=2
                      01094 ;; ***  genNearPointerGet  5961
                      01095 ;;      694 register type nRegs=1
                      01096 ;;; /home/sdcc-builder/build/sdcc-build/orig/sdcc/src/pic14/gen.c:1343:mov2w_op *{*
                      01097 ;; ***  mov2w  1381  offset=0
                      01098 ;; >>> /home/sdcc-builder/build/sdcc-build/orig/sdcc/src/pic14/gen.c:1386:mov2w
                      01099 ;;      1109 rIdx = r0x105B 
010D   08??           01100         MOVF    r0x101B,W
                      01101 ;; >>> /home/sdcc-builder/build/sdcc-build/orig/sdcc/src/pic14/gen.c:5602:setup_fsr
010E   1283 1303      01102         BANKSEL FSR
0110   0084           01103         MOVWF   FSR
                      01104 ;;; /home/sdcc-builder/build/sdcc-build/orig/sdcc/src/pic14/gen.c:5553:SetIrp *{*
                      01105 ;; >>> /home/sdcc-builder/build/sdcc-build/orig/sdcc/src/pic14/gen.c:5580:SetIrp
0111   1383           01106         BCF     STATUS,7
                      01107 ;; >>> /home/sdcc-builder/build/sdcc-build/orig/sdcc/src/pic14/gen.c:5583:SetIrp
0112   ???? ????      01108         BANKSEL r0x101C
0114   18??           01109         BTFSC   r0x101C,0
                      01110 ;; >>> /home/sdcc-builder/build/sdcc-build/orig/sdcc/src/pic14/gen.c:5584:SetIrp
0115   1783           01111         BSF     STATUS,7
                      01112 ;; ***  genNearPointerGet  5988
                      01113 ;; >>> /home/sdcc-builder/build/sdcc-build/orig/sdcc/src/pic14/gen.c:5995:genNearPointerGet
0116   1283 1303      01114         BANKSEL INDF
0118   0800           01115         MOVF    INDF,W
                      01116 ;; >>> /home/sdcc-builder/build/sdcc-build/orig/sdcc/src/pic14/gen.c:6002:genNearPointerGet
                      01117 ;;      1109 rIdx = r0x105D 
0119   ???? ????      01118         BANKSEL r0x101D
011B   00??           01119         MOVWF   r0x101D
                      01120 ;;; /home/sdcc-builder/build/sdcc-build/orig/sdcc/src/pic14/gen.c:2316:resultRemat *{*
                      01121 ;;; /home/sdcc-builder/build/sdcc-build/orig/sdcc/src/pic14/gen.c:6759:genIfx *{*
                      01122 ;; ***  genIfx  6760
                      01123 ;;      694 register type nRegs=1
                      01124 ;; ***  pic14_toBoolean  1515
                      01125 ;; >>> /home/sdcc-builder/build/sdcc-build/orig/sdcc/src/pic14/gen.c:1522:pic14_toBoolean
011C   08??           01126         MOVF    r0x101D,W
011D   1D03           01127         BTFSS   STATUS,2
                      01128 ;; >>> /home/sdcc-builder/build/sdcc-build/orig/sdcc/src/pic14/gen.c:6809:genIfx
                      01129 ;; ***  popGetLabel  key=36, label offset 21
011E   2???           01130         GOTO    _00157_DS_
                      01131 ;;; /home/sdcc-builder/build/sdcc-build/orig/sdcc/src/pic14/gen.c:2316:resultRemat *{*
                      01132 ;; ***  genPlus  611
                      01133 ;;; /home/sdcc-builder/build/sdcc-build/orig/sdcc/src/pic14/genarith.c:612:genPlus *{*
                      01134 ;;      694 register type nRegs=2
                      01135 ;;      694 register type nRegs=2
                      01136 ;;      line = 618 result AOP_REG=r0x105B, size=2, left AOP_REG=r0x1057, size=2, right AOP_LIT=0x01, siz
                            e=1
gpasm-1.4.0 #1106 (Oct  6 2014) obj\Debug\But   5-1-2022  15:39:59          PAGE 23


LOC    OBJECT CODE    LINE  SOURCE TEXT
  VALUE

                      01137 ;;; /home/sdcc-builder/build/sdcc-build/orig/sdcc/src/pic14/genarith.c:142:genPlusIncr *{*
                      01138 ;; ***  genPlusIncr  144
                      01139 ;;      result AOP_REG, left AOP_REG, right AOP_LIT
                      01140 ;;      genPlusIncr  156
                      01141 ;;      genPlusIncr  180
                      01142 ;;      adding lit to something. size 2
                      01143 ;;; /home/sdcc-builder/build/sdcc-build/orig/sdcc/src/pic14/genarith.c:269:genAddLit *{*
                      01144 ;; ***  genAddLit  270
                      01145 ;;  left and result aren't same genAddLit  514
                      01146 ;; >>> /home/sdcc-builder/build/sdcc-build/orig/sdcc/src/pic14/genarith.c:546:genAddLit
                      01147         .line   116; "Button.c" (SWs_Info[current_SW].sw_samples[1] == SW_RELEASED_LEVEL)&&
011F   3001           01148         MOVLW   0x01
                      01149 ;; >>> /home/sdcc-builder/build/sdcc-build/orig/sdcc/src/pic14/genarith.c:547:genAddLit
                      01150 ;;      1109 rIdx = r0x1057 
0120   07??           01151         ADDWF   r0x1017,W
                      01152 ;;; /home/sdcc-builder/build/sdcc-build/orig/sdcc/src/pic14/genarith.c:253:emitMOVWF *{*
                      01153 ;; >>> /home/sdcc-builder/build/sdcc-build/orig/sdcc/src/pic14/genarith.c:257:emitMOVWF
                      01154 ;;      1109 rIdx = r0x105B 
0121   00??           01155         MOVWF   r0x101B
                      01156 ;; >>> /home/sdcc-builder/build/sdcc-build/orig/sdcc/src/pic14/genarith.c:584:genAddLit
                      01157 ;;      1109 rIdx = r0x105C 
0122   01??           01158         CLRF    r0x101C
                      01159 ;; >>> /home/sdcc-builder/build/sdcc-build/orig/sdcc/src/pic14/genarith.c:585:genAddLit
                      01160 ;;      1109 rIdx = r0x105C 
0123   0D??           01161         RLF     r0x101C,F
                      01162 ;; >>> /home/sdcc-builder/build/sdcc-build/orig/sdcc/src/pic14/genarith.c:586:genAddLit
                      01163 ;;      1109 rIdx = r0x1058 
0124   08??           01164         MOVF    r0x1018,W
                      01165 ;; >>> /home/sdcc-builder/build/sdcc-build/orig/sdcc/src/pic14/genarith.c:587:genAddLit
                      01166 ;;      1109 rIdx = r0x105C 
0125   07??           01167         ADDWF   r0x101C,F
                      01168 ;; ***  addSign  861
                      01169 ;;; /home/sdcc-builder/build/sdcc-build/orig/sdcc/src/pic14/genarith.c:862:addSign *{*
                      01170 ;;; /home/sdcc-builder/build/sdcc-build/orig/sdcc/src/pic14/gen.c:2316:resultRemat *{*
                      01171 ;;; /home/sdcc-builder/build/sdcc-build/orig/sdcc/src/pic14/gen.c:6162:genPointerGet *{*
                      01172 ;; ***  genPointerGet  6163
                      01173 ;;; /home/sdcc-builder/build/sdcc-build/orig/sdcc/src/pic14/gen.c:5944:genNearPointerGet *{*
                      01174 ;; ***  genNearPointerGet  5945
                      01175 ;;      694 register type nRegs=2
                      01176 ;; ***  genNearPointerGet  5961
                      01177 ;;      694 register type nRegs=1
                      01178 ;;; /home/sdcc-builder/build/sdcc-build/orig/sdcc/src/pic14/gen.c:1343:mov2w_op *{*
                      01179 ;; ***  mov2w  1381  offset=0
                      01180 ;; >>> /home/sdcc-builder/build/sdcc-build/orig/sdcc/src/pic14/gen.c:1386:mov2w
                      01181 ;;      1109 rIdx = r0x105B 
0126   08??           01182         MOVF    r0x101B,W
                      01183 ;; >>> /home/sdcc-builder/build/sdcc-build/orig/sdcc/src/pic14/gen.c:5602:setup_fsr
0127   1283 1303      01184         BANKSEL FSR
0129   0084           01185         MOVWF   FSR
                      01186 ;;; /home/sdcc-builder/build/sdcc-build/orig/sdcc/src/pic14/gen.c:5553:SetIrp *{*
                      01187 ;; >>> /home/sdcc-builder/build/sdcc-build/orig/sdcc/src/pic14/gen.c:5580:SetIrp
012A   1383           01188         BCF     STATUS,7
                      01189 ;; >>> /home/sdcc-builder/build/sdcc-build/orig/sdcc/src/pic14/gen.c:5583:SetIrp
gpasm-1.4.0 #1106 (Oct  6 2014) obj\Debug\But   5-1-2022  15:39:59          PAGE 24


LOC    OBJECT CODE    LINE  SOURCE TEXT
  VALUE

012B   ???? ????      01190         BANKSEL r0x101C
012D   18??           01191         BTFSC   r0x101C,0
                      01192 ;; >>> /home/sdcc-builder/build/sdcc-build/orig/sdcc/src/pic14/gen.c:5584:SetIrp
012E   1783           01193         BSF     STATUS,7
                      01194 ;; ***  genNearPointerGet  5988
                      01195 ;; >>> /home/sdcc-builder/build/sdcc-build/orig/sdcc/src/pic14/gen.c:5995:genNearPointerGet
012F   1283 1303      01196         BANKSEL INDF
0131   0800           01197         MOVF    INDF,W
                      01198 ;; >>> /home/sdcc-builder/build/sdcc-build/orig/sdcc/src/pic14/gen.c:6002:genNearPointerGet
                      01199 ;;      1109 rIdx = r0x105D 
0132   ???? ????      01200         BANKSEL r0x101D
0134   00??           01201         MOVWF   r0x101D
0135   3A01           01202         XORLW   0x01
                      01203 ;; >>> /home/sdcc-builder/build/sdcc-build/orig/sdcc/src/pic14/gen.c:3687:genCmpEq
0136   1D03           01204         BTFSS   STATUS,2
                      01205 ;; >>> /home/sdcc-builder/build/sdcc-build/orig/sdcc/src/pic14/gen.c:3690:genCmpEq
                      01206 ;; ***  popGetLabel  key=36, label offset 21
0137   2???           01207         GOTO    _00157_DS_
                      01208 ;;; /home/sdcc-builder/build/sdcc-build/orig/sdcc/src/pic14/gen.c:2316:resultRemat *{*
                      01209 ;;; /home/sdcc-builder/build/sdcc-build/orig/sdcc/src/pic14/gen.c:2316:resultRemat *{*
                      01210 ;;; /home/sdcc-builder/build/sdcc-build/orig/sdcc/src/pic14/gen.c:6162:genPointerGet *{*
                      01211 ;; ***  genPointerGet  6163
                      01212 ;;; /home/sdcc-builder/build/sdcc-build/orig/sdcc/src/pic14/gen.c:5944:genNearPointerGet *{*
                      01213 ;; ***  genNearPointerGet  5945
                      01214 ;;      694 register type nRegs=2
                      01215 ;; ***  genNearPointerGet  5961
                      01216 ;;      694 register type nRegs=1
                      01217 ;;; /home/sdcc-builder/build/sdcc-build/orig/sdcc/src/pic14/gen.c:1343:mov2w_op *{*
                      01218 ;; ***  mov2w  1381  offset=0
                      01219 ;; >>> /home/sdcc-builder/build/sdcc-build/orig/sdcc/src/pic14/gen.c:1386:mov2w
                      01220 ;;      1109 rIdx = r0x1057 
                      01221         .line   117; "Button.c" (SWs_Info[current_SW].sw_samples[0] == SW_RELEASED_LEVEL))
0138   08??           01222         MOVF    r0x1017,W
                      01223 ;; >>> /home/sdcc-builder/build/sdcc-build/orig/sdcc/src/pic14/gen.c:5602:setup_fsr
0139   1283 1303      01224         BANKSEL FSR
013B   0084           01225         MOVWF   FSR
                      01226 ;;; /home/sdcc-builder/build/sdcc-build/orig/sdcc/src/pic14/gen.c:5553:SetIrp *{*
                      01227 ;; >>> /home/sdcc-builder/build/sdcc-build/orig/sdcc/src/pic14/gen.c:5580:SetIrp
013C   1383           01228         BCF     STATUS,7
                      01229 ;; >>> /home/sdcc-builder/build/sdcc-build/orig/sdcc/src/pic14/gen.c:5583:SetIrp
013D   ???? ????      01230         BANKSEL r0x1018
013F   18??           01231         BTFSC   r0x1018,0
                      01232 ;; >>> /home/sdcc-builder/build/sdcc-build/orig/sdcc/src/pic14/gen.c:5584:SetIrp
0140   1783           01233         BSF     STATUS,7
                      01234 ;; ***  genNearPointerGet  5988
                      01235 ;; >>> /home/sdcc-builder/build/sdcc-build/orig/sdcc/src/pic14/gen.c:5995:genNearPointerGet
0141   1283 1303      01236         BANKSEL INDF
0143   0800           01237         MOVF    INDF,W
                      01238 ;; >>> /home/sdcc-builder/build/sdcc-build/orig/sdcc/src/pic14/gen.c:6002:genNearPointerGet
                      01239 ;;      1109 rIdx = r0x105B 
0144   ???? ????      01240         BANKSEL r0x101B
0146   00??           01241         MOVWF   r0x101B
0147   3A01           01242         XORLW   0x01
gpasm-1.4.0 #1106 (Oct  6 2014) obj\Debug\But   5-1-2022  15:39:59          PAGE 25


LOC    OBJECT CODE    LINE  SOURCE TEXT
  VALUE

                      01243 ;; >>> /home/sdcc-builder/build/sdcc-build/orig/sdcc/src/pic14/gen.c:3687:genCmpEq
0148   1D03           01244         BTFSS   STATUS,2
                      01245 ;; >>> /home/sdcc-builder/build/sdcc-build/orig/sdcc/src/pic14/gen.c:3690:genCmpEq
                      01246 ;; ***  popGetLabel  key=36, label offset 21
0149   2???           01247         GOTO    _00157_DS_
                      01248 ;;; /home/sdcc-builder/build/sdcc-build/orig/sdcc/src/pic14/gen.c:2316:resultRemat *{*
                      01249 ;;; /home/sdcc-builder/build/sdcc-build/orig/sdcc/src/pic14/gen.c:2316:resultRemat *{*
                      01250 ;;; /home/sdcc-builder/build/sdcc-build/orig/sdcc/src/pic14/gen.c:6686:genPointerSet *{*
                      01251 ;; ***  genPointerSet  6687
                      01252 ;;; /home/sdcc-builder/build/sdcc-build/orig/sdcc/src/pic14/gen.c:6505:genNearPointerSet *{*
                      01253 ;; ***  genNearPointerSet  6506
                      01254 ;;      694 register type nRegs=2
                      01255 ;; ***  genNearPointerSet  6521
                      01256 ;;      line = 6523 result AOP_REG=r0x1059, size=2, left -=-, size=0, right AOP_LIT=0x01, size=1
                      01257 ;;; /home/sdcc-builder/build/sdcc-build/orig/sdcc/src/pic14/gen.c:1343:mov2w_op *{*
                      01258 ;; ***  mov2w  1381  offset=0
                      01259 ;; >>> /home/sdcc-builder/build/sdcc-build/orig/sdcc/src/pic14/gen.c:1386:mov2w
                      01260 ;;      1109 rIdx = r0x1059 
                      01261         .line   119; "Button.c" SWs_Info[current_SW].sw_state = SW_PRE_PRESSED;
014A   08??           01262         MOVF    r0x1019,W
                      01263 ;; >>> /home/sdcc-builder/build/sdcc-build/orig/sdcc/src/pic14/gen.c:5602:setup_fsr
014B   1283 1303      01264         BANKSEL FSR
014D   0084           01265         MOVWF   FSR
                      01266 ;;; /home/sdcc-builder/build/sdcc-build/orig/sdcc/src/pic14/gen.c:5553:SetIrp *{*
                      01267 ;; >>> /home/sdcc-builder/build/sdcc-build/orig/sdcc/src/pic14/gen.c:5580:SetIrp
014E   1383           01268         BCF     STATUS,7
                      01269 ;; >>> /home/sdcc-builder/build/sdcc-build/orig/sdcc/src/pic14/gen.c:5583:SetIrp
014F   ???? ????      01270         BANKSEL r0x101A
0151   18??           01271         BTFSC   r0x101A,0
                      01272 ;; >>> /home/sdcc-builder/build/sdcc-build/orig/sdcc/src/pic14/gen.c:5584:SetIrp
0152   1783           01273         BSF     STATUS,7
                      01274 ;; ***  genNearPointerSet  6548
                      01275 ;; >>> /home/sdcc-builder/build/sdcc-build/orig/sdcc/src/pic14/gen.c:6560:genNearPointerSet
0153   3001           01276         MOVLW   0x01
                      01277 ;; >>> /home/sdcc-builder/build/sdcc-build/orig/sdcc/src/pic14/gen.c:6569:genNearPointerSet
0154   1283 1303      01278         BANKSEL INDF
0156   0080           01279         MOVWF   INDF
                      01280 ;; ***  genNearPointerSet  6577
                      01281 ;; ***  genNearPointerSet  6603
                      01282 ;;; /home/sdcc-builder/build/sdcc-build/orig/sdcc/src/pic14/gen.c:2316:resultRemat *{*
                      01283 ;;; /home/sdcc-builder/build/sdcc-build/orig/sdcc/src/pic14/gen.c:2778:genGoto *{*
                      01284 ;; >>> /home/sdcc-builder/build/sdcc-build/orig/sdcc/src/pic14/gen.c:2780:genGoto
                      01285 ;; ***  popGetLabel  key=36, label offset 21
                      01286         .line   124; "Button.c" break;
0157   2???           01287         GOTO    _00157_DS_
                      01288 ;;; /home/sdcc-builder/build/sdcc-build/orig/sdcc/src/pic14/gen.c:2316:resultRemat *{*
                      01289 ;;; /home/sdcc-builder/build/sdcc-build/orig/sdcc/src/pic14/gen.c:2760:genLabel *{*
                      01290 ;; ***  genLabel  2763
                      01291 ;;; /home/sdcc-builder/build/sdcc-build/orig/sdcc/src/pic14/gen.c:2316:resultRemat *{*
                      01292 ;; ***  genPlus  611
                      01293 ;;; /home/sdcc-builder/build/sdcc-build/orig/sdcc/src/pic14/genarith.c:612:genPlus *{*
                      01294 ;;      694 register type nRegs=2
                      01295 ;;      694 register type nRegs=2
gpasm-1.4.0 #1106 (Oct  6 2014) obj\Debug\But   5-1-2022  15:39:59          PAGE 26


LOC    OBJECT CODE    LINE  SOURCE TEXT
  VALUE

                      01296 ;;      line = 618 result AOP_REG=r0x105B, size=2, left AOP_REG=r0x1057, size=2, right AOP_LIT=0x04, siz
                            e=1
                      01297 ;;; /home/sdcc-builder/build/sdcc-build/orig/sdcc/src/pic14/genarith.c:142:genPlusIncr *{*
                      01298 ;; ***  genPlusIncr  144
                      01299 ;;      result AOP_REG, left AOP_REG, right AOP_LIT
                      01300 ;;      genPlusIncr  156
                      01301 ;;      adding lit to something. size 2
                      01302 ;;; /home/sdcc-builder/build/sdcc-build/orig/sdcc/src/pic14/genarith.c:269:genAddLit *{*
                      01303 ;; ***  genAddLit  270
                      01304 ;;  left and result aren't same genAddLit  514
                      01305 ;; >>> /home/sdcc-builder/build/sdcc-build/orig/sdcc/src/pic14/genarith.c:546:genAddLit
0158                  01306 _00135_DS_
                      01307         .line   127; "Button.c" if ((SWs_Info[current_SW].sw_samples[4] == SW_PRESSED_LEVEL)&&
0158   3004           01308         MOVLW   0x04
                      01309 ;; >>> /home/sdcc-builder/build/sdcc-build/orig/sdcc/src/pic14/genarith.c:547:genAddLit
                      01310 ;;      1109 rIdx = r0x1057 
0159   ???? ????      01311         BANKSEL r0x1017
015B   07??           01312         ADDWF   r0x1017,W
                      01313 ;;; /home/sdcc-builder/build/sdcc-build/orig/sdcc/src/pic14/genarith.c:253:emitMOVWF *{*
                      01314 ;; >>> /home/sdcc-builder/build/sdcc-build/orig/sdcc/src/pic14/genarith.c:257:emitMOVWF
                      01315 ;;      1109 rIdx = r0x105B 
015C   00??           01316         MOVWF   r0x101B
                      01317 ;; >>> /home/sdcc-builder/build/sdcc-build/orig/sdcc/src/pic14/genarith.c:584:genAddLit
                      01318 ;;      1109 rIdx = r0x105C 
015D   01??           01319         CLRF    r0x101C
                      01320 ;; >>> /home/sdcc-builder/build/sdcc-build/orig/sdcc/src/pic14/genarith.c:585:genAddLit
                      01321 ;;      1109 rIdx = r0x105C 
015E   0D??           01322         RLF     r0x101C,F
                      01323 ;; >>> /home/sdcc-builder/build/sdcc-build/orig/sdcc/src/pic14/genarith.c:586:genAddLit
                      01324 ;;      1109 rIdx = r0x1058 
015F   08??           01325         MOVF    r0x1018,W
                      01326 ;; >>> /home/sdcc-builder/build/sdcc-build/orig/sdcc/src/pic14/genarith.c:587:genAddLit
                      01327 ;;      1109 rIdx = r0x105C 
0160   07??           01328         ADDWF   r0x101C,F
                      01329 ;; ***  addSign  861
                      01330 ;;; /home/sdcc-builder/build/sdcc-build/orig/sdcc/src/pic14/genarith.c:862:addSign *{*
                      01331 ;;; /home/sdcc-builder/build/sdcc-build/orig/sdcc/src/pic14/gen.c:2316:resultRemat *{*
                      01332 ;;; /home/sdcc-builder/build/sdcc-build/orig/sdcc/src/pic14/gen.c:6162:genPointerGet *{*
                      01333 ;; ***  genPointerGet  6163
                      01334 ;;; /home/sdcc-builder/build/sdcc-build/orig/sdcc/src/pic14/gen.c:5944:genNearPointerGet *{*
                      01335 ;; ***  genNearPointerGet  5945
                      01336 ;;      694 register type nRegs=2
                      01337 ;; ***  genNearPointerGet  5961
                      01338 ;;      694 register type nRegs=1
                      01339 ;;; /home/sdcc-builder/build/sdcc-build/orig/sdcc/src/pic14/gen.c:1343:mov2w_op *{*
                      01340 ;; ***  mov2w  1381  offset=0
                      01341 ;; >>> /home/sdcc-builder/build/sdcc-build/orig/sdcc/src/pic14/gen.c:1386:mov2w
                      01342 ;;      1109 rIdx = r0x105B 
0161   08??           01343         MOVF    r0x101B,W
                      01344 ;; >>> /home/sdcc-builder/build/sdcc-build/orig/sdcc/src/pic14/gen.c:5602:setup_fsr
0162   1283 1303      01345         BANKSEL FSR
0164   0084           01346         MOVWF   FSR
                      01347 ;;; /home/sdcc-builder/build/sdcc-build/orig/sdcc/src/pic14/gen.c:5553:SetIrp *{*
gpasm-1.4.0 #1106 (Oct  6 2014) obj\Debug\But   5-1-2022  15:39:59          PAGE 27


LOC    OBJECT CODE    LINE  SOURCE TEXT
  VALUE

                      01348 ;; >>> /home/sdcc-builder/build/sdcc-build/orig/sdcc/src/pic14/gen.c:5580:SetIrp
0165   1383           01349         BCF     STATUS,7
                      01350 ;; >>> /home/sdcc-builder/build/sdcc-build/orig/sdcc/src/pic14/gen.c:5583:SetIrp
0166   ???? ????      01351         BANKSEL r0x101C
0168   18??           01352         BTFSC   r0x101C,0
                      01353 ;; >>> /home/sdcc-builder/build/sdcc-build/orig/sdcc/src/pic14/gen.c:5584:SetIrp
0169   1783           01354         BSF     STATUS,7
                      01355 ;; ***  genNearPointerGet  5988
                      01356 ;; >>> /home/sdcc-builder/build/sdcc-build/orig/sdcc/src/pic14/gen.c:5995:genNearPointerGet
016A   1283 1303      01357         BANKSEL INDF
016C   0800           01358         MOVF    INDF,W
                      01359 ;; >>> /home/sdcc-builder/build/sdcc-build/orig/sdcc/src/pic14/gen.c:6002:genNearPointerGet
                      01360 ;;      1109 rIdx = r0x105D 
016D   ???? ????      01361         BANKSEL r0x101D
016F   00??           01362         MOVWF   r0x101D
                      01363 ;;; /home/sdcc-builder/build/sdcc-build/orig/sdcc/src/pic14/gen.c:2316:resultRemat *{*
                      01364 ;;; /home/sdcc-builder/build/sdcc-build/orig/sdcc/src/pic14/gen.c:6759:genIfx *{*
                      01365 ;; ***  genIfx  6760
                      01366 ;;      694 register type nRegs=1
                      01367 ;; ***  pic14_toBoolean  1515
                      01368 ;; >>> /home/sdcc-builder/build/sdcc-build/orig/sdcc/src/pic14/gen.c:1522:pic14_toBoolean
0170   08??           01369         MOVF    r0x101D,W
0171   1D03           01370         BTFSS   STATUS,2
                      01371 ;; >>> /home/sdcc-builder/build/sdcc-build/orig/sdcc/src/pic14/gen.c:6809:genIfx
                      01372 ;; ***  popGetLabel  key=36, label offset 21
0172   2???           01373         GOTO    _00157_DS_
                      01374 ;;; /home/sdcc-builder/build/sdcc-build/orig/sdcc/src/pic14/gen.c:2316:resultRemat *{*
                      01375 ;; ***  genPlus  611
                      01376 ;;; /home/sdcc-builder/build/sdcc-build/orig/sdcc/src/pic14/genarith.c:612:genPlus *{*
                      01377 ;;      694 register type nRegs=2
                      01378 ;;      694 register type nRegs=2
                      01379 ;;      line = 618 result AOP_REG=r0x105B, size=2, left AOP_REG=r0x1057, size=2, right AOP_LIT=0x03, siz
                            e=1
                      01380 ;;; /home/sdcc-builder/build/sdcc-build/orig/sdcc/src/pic14/genarith.c:142:genPlusIncr *{*
                      01381 ;; ***  genPlusIncr  144
                      01382 ;;      result AOP_REG, left AOP_REG, right AOP_LIT
                      01383 ;;      genPlusIncr  156
                      01384 ;;      adding lit to something. size 2
                      01385 ;;; /home/sdcc-builder/build/sdcc-build/orig/sdcc/src/pic14/genarith.c:269:genAddLit *{*
                      01386 ;; ***  genAddLit  270
                      01387 ;;  left and result aren't same genAddLit  514
                      01388 ;; >>> /home/sdcc-builder/build/sdcc-build/orig/sdcc/src/pic14/genarith.c:546:genAddLit
                      01389         .line   128; "Button.c" (SWs_Info[current_SW].sw_samples[3] == SW_PRESSED_LEVEL)&&
0173   3003           01390         MOVLW   0x03
                      01391 ;; >>> /home/sdcc-builder/build/sdcc-build/orig/sdcc/src/pic14/genarith.c:547:genAddLit
                      01392 ;;      1109 rIdx = r0x1057 
0174   07??           01393         ADDWF   r0x1017,W
                      01394 ;;; /home/sdcc-builder/build/sdcc-build/orig/sdcc/src/pic14/genarith.c:253:emitMOVWF *{*
                      01395 ;; >>> /home/sdcc-builder/build/sdcc-build/orig/sdcc/src/pic14/genarith.c:257:emitMOVWF
                      01396 ;;      1109 rIdx = r0x105B 
0175   00??           01397         MOVWF   r0x101B
                      01398 ;; >>> /home/sdcc-builder/build/sdcc-build/orig/sdcc/src/pic14/genarith.c:584:genAddLit
                      01399 ;;      1109 rIdx = r0x105C 
gpasm-1.4.0 #1106 (Oct  6 2014) obj\Debug\But   5-1-2022  15:39:59          PAGE 28


LOC    OBJECT CODE    LINE  SOURCE TEXT
  VALUE

0176   01??           01400         CLRF    r0x101C
                      01401 ;; >>> /home/sdcc-builder/build/sdcc-build/orig/sdcc/src/pic14/genarith.c:585:genAddLit
                      01402 ;;      1109 rIdx = r0x105C 
0177   0D??           01403         RLF     r0x101C,F
                      01404 ;; >>> /home/sdcc-builder/build/sdcc-build/orig/sdcc/src/pic14/genarith.c:586:genAddLit
                      01405 ;;      1109 rIdx = r0x1058 
0178   08??           01406         MOVF    r0x1018,W
                      01407 ;; >>> /home/sdcc-builder/build/sdcc-build/orig/sdcc/src/pic14/genarith.c:587:genAddLit
                      01408 ;;      1109 rIdx = r0x105C 
0179   07??           01409         ADDWF   r0x101C,F
                      01410 ;; ***  addSign  861
                      01411 ;;; /home/sdcc-builder/build/sdcc-build/orig/sdcc/src/pic14/genarith.c:862:addSign *{*
                      01412 ;;; /home/sdcc-builder/build/sdcc-build/orig/sdcc/src/pic14/gen.c:2316:resultRemat *{*
                      01413 ;;; /home/sdcc-builder/build/sdcc-build/orig/sdcc/src/pic14/gen.c:6162:genPointerGet *{*
                      01414 ;; ***  genPointerGet  6163
                      01415 ;;; /home/sdcc-builder/build/sdcc-build/orig/sdcc/src/pic14/gen.c:5944:genNearPointerGet *{*
                      01416 ;; ***  genNearPointerGet  5945
                      01417 ;;      694 register type nRegs=2
                      01418 ;; ***  genNearPointerGet  5961
                      01419 ;;      694 register type nRegs=1
                      01420 ;;; /home/sdcc-builder/build/sdcc-build/orig/sdcc/src/pic14/gen.c:1343:mov2w_op *{*
                      01421 ;; ***  mov2w  1381  offset=0
                      01422 ;; >>> /home/sdcc-builder/build/sdcc-build/orig/sdcc/src/pic14/gen.c:1386:mov2w
                      01423 ;;      1109 rIdx = r0x105B 
017A   08??           01424         MOVF    r0x101B,W
                      01425 ;; >>> /home/sdcc-builder/build/sdcc-build/orig/sdcc/src/pic14/gen.c:5602:setup_fsr
017B   1283 1303      01426         BANKSEL FSR
017D   0084           01427         MOVWF   FSR
                      01428 ;;; /home/sdcc-builder/build/sdcc-build/orig/sdcc/src/pic14/gen.c:5553:SetIrp *{*
                      01429 ;; >>> /home/sdcc-builder/build/sdcc-build/orig/sdcc/src/pic14/gen.c:5580:SetIrp
017E   1383           01430         BCF     STATUS,7
                      01431 ;; >>> /home/sdcc-builder/build/sdcc-build/orig/sdcc/src/pic14/gen.c:5583:SetIrp
017F   ???? ????      01432         BANKSEL r0x101C
0181   18??           01433         BTFSC   r0x101C,0
                      01434 ;; >>> /home/sdcc-builder/build/sdcc-build/orig/sdcc/src/pic14/gen.c:5584:SetIrp
0182   1783           01435         BSF     STATUS,7
                      01436 ;; ***  genNearPointerGet  5988
                      01437 ;; >>> /home/sdcc-builder/build/sdcc-build/orig/sdcc/src/pic14/gen.c:5995:genNearPointerGet
0183   1283 1303      01438         BANKSEL INDF
0185   0800           01439         MOVF    INDF,W
                      01440 ;; >>> /home/sdcc-builder/build/sdcc-build/orig/sdcc/src/pic14/gen.c:6002:genNearPointerGet
                      01441 ;;      1109 rIdx = r0x105D 
0186   ???? ????      01442         BANKSEL r0x101D
0188   00??           01443         MOVWF   r0x101D
                      01444 ;;; /home/sdcc-builder/build/sdcc-build/orig/sdcc/src/pic14/gen.c:2316:resultRemat *{*
                      01445 ;;; /home/sdcc-builder/build/sdcc-build/orig/sdcc/src/pic14/gen.c:6759:genIfx *{*
                      01446 ;; ***  genIfx  6760
                      01447 ;;      694 register type nRegs=1
                      01448 ;; ***  pic14_toBoolean  1515
                      01449 ;; >>> /home/sdcc-builder/build/sdcc-build/orig/sdcc/src/pic14/gen.c:1522:pic14_toBoolean
0189   08??           01450         MOVF    r0x101D,W
018A   1D03           01451         BTFSS   STATUS,2
                      01452 ;; >>> /home/sdcc-builder/build/sdcc-build/orig/sdcc/src/pic14/gen.c:6809:genIfx
gpasm-1.4.0 #1106 (Oct  6 2014) obj\Debug\But   5-1-2022  15:39:59          PAGE 29


LOC    OBJECT CODE    LINE  SOURCE TEXT
  VALUE

                      01453 ;; ***  popGetLabel  key=36, label offset 21
018B   2???           01454         GOTO    _00157_DS_
                      01455 ;;; /home/sdcc-builder/build/sdcc-build/orig/sdcc/src/pic14/gen.c:2316:resultRemat *{*
                      01456 ;; ***  genPlus  611
                      01457 ;;; /home/sdcc-builder/build/sdcc-build/orig/sdcc/src/pic14/genarith.c:612:genPlus *{*
                      01458 ;;      694 register type nRegs=2
                      01459 ;;      694 register type nRegs=2
                      01460 ;;      line = 618 result AOP_REG=r0x105B, size=2, left AOP_REG=r0x1057, size=2, right AOP_LIT=0x02, siz
                            e=1
                      01461 ;;; /home/sdcc-builder/build/sdcc-build/orig/sdcc/src/pic14/genarith.c:142:genPlusIncr *{*
                      01462 ;; ***  genPlusIncr  144
                      01463 ;;      result AOP_REG, left AOP_REG, right AOP_LIT
                      01464 ;;      genPlusIncr  156
                      01465 ;;      genPlusIncr  180
                      01466 ;;      adding lit to something. size 2
                      01467 ;;; /home/sdcc-builder/build/sdcc-build/orig/sdcc/src/pic14/genarith.c:269:genAddLit *{*
                      01468 ;; ***  genAddLit  270
                      01469 ;;  left and result aren't same genAddLit  514
                      01470 ;; >>> /home/sdcc-builder/build/sdcc-build/orig/sdcc/src/pic14/genarith.c:546:genAddLit
                      01471         .line   129; "Button.c" (SWs_Info[current_SW].sw_samples[2] == SW_PRESSED_LEVEL))
018C   3002           01472         MOVLW   0x02
                      01473 ;; >>> /home/sdcc-builder/build/sdcc-build/orig/sdcc/src/pic14/genarith.c:547:genAddLit
                      01474 ;;      1109 rIdx = r0x1057 
018D   07??           01475         ADDWF   r0x1017,W
                      01476 ;;; /home/sdcc-builder/build/sdcc-build/orig/sdcc/src/pic14/genarith.c:253:emitMOVWF *{*
                      01477 ;; >>> /home/sdcc-builder/build/sdcc-build/orig/sdcc/src/pic14/genarith.c:257:emitMOVWF
                      01478 ;;      1109 rIdx = r0x105B 
018E   00??           01479         MOVWF   r0x101B
                      01480 ;; >>> /home/sdcc-builder/build/sdcc-build/orig/sdcc/src/pic14/genarith.c:584:genAddLit
                      01481 ;;      1109 rIdx = r0x105C 
018F   01??           01482         CLRF    r0x101C
                      01483 ;; >>> /home/sdcc-builder/build/sdcc-build/orig/sdcc/src/pic14/genarith.c:585:genAddLit
                      01484 ;;      1109 rIdx = r0x105C 
0190   0D??           01485         RLF     r0x101C,F
                      01486 ;; >>> /home/sdcc-builder/build/sdcc-build/orig/sdcc/src/pic14/genarith.c:586:genAddLit
                      01487 ;;      1109 rIdx = r0x1058 
0191   08??           01488         MOVF    r0x1018,W
                      01489 ;; >>> /home/sdcc-builder/build/sdcc-build/orig/sdcc/src/pic14/genarith.c:587:genAddLit
                      01490 ;;      1109 rIdx = r0x105C 
0192   07??           01491         ADDWF   r0x101C,F
                      01492 ;; ***  addSign  861
                      01493 ;;; /home/sdcc-builder/build/sdcc-build/orig/sdcc/src/pic14/genarith.c:862:addSign *{*
                      01494 ;;; /home/sdcc-builder/build/sdcc-build/orig/sdcc/src/pic14/gen.c:2316:resultRemat *{*
                      01495 ;;; /home/sdcc-builder/build/sdcc-build/orig/sdcc/src/pic14/gen.c:6162:genPointerGet *{*
                      01496 ;; ***  genPointerGet  6163
                      01497 ;;; /home/sdcc-builder/build/sdcc-build/orig/sdcc/src/pic14/gen.c:5944:genNearPointerGet *{*
                      01498 ;; ***  genNearPointerGet  5945
                      01499 ;;      694 register type nRegs=2
                      01500 ;; ***  genNearPointerGet  5961
                      01501 ;;      694 register type nRegs=1
                      01502 ;;; /home/sdcc-builder/build/sdcc-build/orig/sdcc/src/pic14/gen.c:1343:mov2w_op *{*
                      01503 ;; ***  mov2w  1381  offset=0
                      01504 ;; >>> /home/sdcc-builder/build/sdcc-build/orig/sdcc/src/pic14/gen.c:1386:mov2w
gpasm-1.4.0 #1106 (Oct  6 2014) obj\Debug\But   5-1-2022  15:39:59          PAGE 30


LOC    OBJECT CODE    LINE  SOURCE TEXT
  VALUE

                      01505 ;;      1109 rIdx = r0x105B 
0193   08??           01506         MOVF    r0x101B,W
                      01507 ;; >>> /home/sdcc-builder/build/sdcc-build/orig/sdcc/src/pic14/gen.c:5602:setup_fsr
0194   1283 1303      01508         BANKSEL FSR
0196   0084           01509         MOVWF   FSR
                      01510 ;;; /home/sdcc-builder/build/sdcc-build/orig/sdcc/src/pic14/gen.c:5553:SetIrp *{*
                      01511 ;; >>> /home/sdcc-builder/build/sdcc-build/orig/sdcc/src/pic14/gen.c:5580:SetIrp
0197   1383           01512         BCF     STATUS,7
                      01513 ;; >>> /home/sdcc-builder/build/sdcc-build/orig/sdcc/src/pic14/gen.c:5583:SetIrp
0198   ???? ????      01514         BANKSEL r0x101C
019A   18??           01515         BTFSC   r0x101C,0
                      01516 ;; >>> /home/sdcc-builder/build/sdcc-build/orig/sdcc/src/pic14/gen.c:5584:SetIrp
019B   1783           01517         BSF     STATUS,7
                      01518 ;; ***  genNearPointerGet  5988
                      01519 ;; >>> /home/sdcc-builder/build/sdcc-build/orig/sdcc/src/pic14/gen.c:5995:genNearPointerGet
019C   1283 1303      01520         BANKSEL INDF
019E   0800           01521         MOVF    INDF,W
                      01522 ;; >>> /home/sdcc-builder/build/sdcc-build/orig/sdcc/src/pic14/gen.c:6002:genNearPointerGet
                      01523 ;;      1109 rIdx = r0x105D 
019F   ???? ????      01524         BANKSEL r0x101D
01A1   00??           01525         MOVWF   r0x101D
                      01526 ;;; /home/sdcc-builder/build/sdcc-build/orig/sdcc/src/pic14/gen.c:2316:resultRemat *{*
                      01527 ;;; /home/sdcc-builder/build/sdcc-build/orig/sdcc/src/pic14/gen.c:6759:genIfx *{*
                      01528 ;; ***  genIfx  6760
                      01529 ;;      694 register type nRegs=1
                      01530 ;; ***  pic14_toBoolean  1515
                      01531 ;; >>> /home/sdcc-builder/build/sdcc-build/orig/sdcc/src/pic14/gen.c:1522:pic14_toBoolean
01A2   08??           01532         MOVF    r0x101D,W
01A3   1D03           01533         BTFSS   STATUS,2
                      01534 ;; >>> /home/sdcc-builder/build/sdcc-build/orig/sdcc/src/pic14/gen.c:6809:genIfx
                      01535 ;; ***  popGetLabel  key=36, label offset 21
01A4   2???           01536         GOTO    _00157_DS_
                      01537 ;;; /home/sdcc-builder/build/sdcc-build/orig/sdcc/src/pic14/gen.c:2316:resultRemat *{*
                      01538 ;;; /home/sdcc-builder/build/sdcc-build/orig/sdcc/src/pic14/gen.c:6686:genPointerSet *{*
                      01539 ;; ***  genPointerSet  6687
                      01540 ;;; /home/sdcc-builder/build/sdcc-build/orig/sdcc/src/pic14/gen.c:6505:genNearPointerSet *{*
                      01541 ;; ***  genNearPointerSet  6506
                      01542 ;;      694 register type nRegs=2
                      01543 ;; ***  genNearPointerSet  6521
                      01544 ;;      line = 6523 result AOP_REG=r0x1059, size=2, left -=-, size=0, right AOP_LIT=0x02, size=1
                      01545 ;;; /home/sdcc-builder/build/sdcc-build/orig/sdcc/src/pic14/gen.c:1343:mov2w_op *{*
                      01546 ;; ***  mov2w  1381  offset=0
                      01547 ;; >>> /home/sdcc-builder/build/sdcc-build/orig/sdcc/src/pic14/gen.c:1386:mov2w
                      01548 ;;      1109 rIdx = r0x1059 
                      01549         .line   131; "Button.c" SWs_Info[current_SW].sw_state = SW_PRESSED;
01A5   08??           01550         MOVF    r0x1019,W
                      01551 ;; >>> /home/sdcc-builder/build/sdcc-build/orig/sdcc/src/pic14/gen.c:5602:setup_fsr
01A6   1283 1303      01552         BANKSEL FSR
01A8   0084           01553         MOVWF   FSR
                      01554 ;;; /home/sdcc-builder/build/sdcc-build/orig/sdcc/src/pic14/gen.c:5553:SetIrp *{*
                      01555 ;; >>> /home/sdcc-builder/build/sdcc-build/orig/sdcc/src/pic14/gen.c:5580:SetIrp
01A9   1383           01556         BCF     STATUS,7
                      01557 ;; >>> /home/sdcc-builder/build/sdcc-build/orig/sdcc/src/pic14/gen.c:5583:SetIrp
gpasm-1.4.0 #1106 (Oct  6 2014) obj\Debug\But   5-1-2022  15:39:59          PAGE 31


LOC    OBJECT CODE    LINE  SOURCE TEXT
  VALUE

01AA   ???? ????      01558         BANKSEL r0x101A
01AC   18??           01559         BTFSC   r0x101A,0
                      01560 ;; >>> /home/sdcc-builder/build/sdcc-build/orig/sdcc/src/pic14/gen.c:5584:SetIrp
01AD   1783           01561         BSF     STATUS,7
                      01562 ;; ***  genNearPointerSet  6548
                      01563 ;; >>> /home/sdcc-builder/build/sdcc-build/orig/sdcc/src/pic14/gen.c:6560:genNearPointerSet
01AE   3002           01564         MOVLW   0x02
                      01565 ;; >>> /home/sdcc-builder/build/sdcc-build/orig/sdcc/src/pic14/gen.c:6569:genNearPointerSet
01AF   1283 1303      01566         BANKSEL INDF
01B1   0080           01567         MOVWF   INDF
                      01568 ;; ***  genNearPointerSet  6577
                      01569 ;; ***  genNearPointerSet  6603
                      01570 ;;; /home/sdcc-builder/build/sdcc-build/orig/sdcc/src/pic14/gen.c:2316:resultRemat *{*
                      01571 ;;; /home/sdcc-builder/build/sdcc-build/orig/sdcc/src/pic14/gen.c:2778:genGoto *{*
                      01572 ;; >>> /home/sdcc-builder/build/sdcc-build/orig/sdcc/src/pic14/gen.c:2780:genGoto
                      01573 ;; ***  popGetLabel  key=36, label offset 21
                      01574         .line   137; "Button.c" break;
01B2   2???           01575         GOTO    _00157_DS_
                      01576 ;;; /home/sdcc-builder/build/sdcc-build/orig/sdcc/src/pic14/gen.c:2316:resultRemat *{*
                      01577 ;;; /home/sdcc-builder/build/sdcc-build/orig/sdcc/src/pic14/gen.c:2760:genLabel *{*
                      01578 ;; ***  genLabel  2763
                      01579 ;;; /home/sdcc-builder/build/sdcc-build/orig/sdcc/src/pic14/gen.c:2316:resultRemat *{*
                      01580 ;; ***  genPlus  611
                      01581 ;;; /home/sdcc-builder/build/sdcc-build/orig/sdcc/src/pic14/genarith.c:612:genPlus *{*
                      01582 ;;      694 register type nRegs=2
                      01583 ;;      694 register type nRegs=2
                      01584 ;;      line = 618 result AOP_REG=r0x105B, size=2, left AOP_REG=r0x1057, size=2, right AOP_LIT=0x04, siz
                            e=1
                      01585 ;;; /home/sdcc-builder/build/sdcc-build/orig/sdcc/src/pic14/genarith.c:142:genPlusIncr *{*
                      01586 ;; ***  genPlusIncr  144
                      01587 ;;      result AOP_REG, left AOP_REG, right AOP_LIT
                      01588 ;;      genPlusIncr  156
                      01589 ;;      adding lit to something. size 2
                      01590 ;;; /home/sdcc-builder/build/sdcc-build/orig/sdcc/src/pic14/genarith.c:269:genAddLit *{*
                      01591 ;; ***  genAddLit  270
                      01592 ;;  left and result aren't same genAddLit  514
                      01593 ;; >>> /home/sdcc-builder/build/sdcc-build/orig/sdcc/src/pic14/genarith.c:546:genAddLit
01B3                  01594 _00140_DS_
                      01595         .line   140; "Button.c" if ((SWs_Info[current_SW].sw_samples[4] == SW_RELEASED_LEVEL)&&
01B3   3004           01596         MOVLW   0x04
                      01597 ;; >>> /home/sdcc-builder/build/sdcc-build/orig/sdcc/src/pic14/genarith.c:547:genAddLit
                      01598 ;;      1109 rIdx = r0x1057 
01B4   ???? ????      01599         BANKSEL r0x1017
01B6   07??           01600         ADDWF   r0x1017,W
                      01601 ;;; /home/sdcc-builder/build/sdcc-build/orig/sdcc/src/pic14/genarith.c:253:emitMOVWF *{*
                      01602 ;; >>> /home/sdcc-builder/build/sdcc-build/orig/sdcc/src/pic14/genarith.c:257:emitMOVWF
                      01603 ;;      1109 rIdx = r0x105B 
01B7   00??           01604         MOVWF   r0x101B
                      01605 ;; >>> /home/sdcc-builder/build/sdcc-build/orig/sdcc/src/pic14/genarith.c:584:genAddLit
                      01606 ;;      1109 rIdx = r0x105C 
01B8   01??           01607         CLRF    r0x101C
                      01608 ;; >>> /home/sdcc-builder/build/sdcc-build/orig/sdcc/src/pic14/genarith.c:585:genAddLit
                      01609 ;;      1109 rIdx = r0x105C 
gpasm-1.4.0 #1106 (Oct  6 2014) obj\Debug\But   5-1-2022  15:39:59          PAGE 32


LOC    OBJECT CODE    LINE  SOURCE TEXT
  VALUE

01B9   0D??           01610         RLF     r0x101C,F
                      01611 ;; >>> /home/sdcc-builder/build/sdcc-build/orig/sdcc/src/pic14/genarith.c:586:genAddLit
                      01612 ;;      1109 rIdx = r0x1058 
01BA   08??           01613         MOVF    r0x1018,W
                      01614 ;; >>> /home/sdcc-builder/build/sdcc-build/orig/sdcc/src/pic14/genarith.c:587:genAddLit
                      01615 ;;      1109 rIdx = r0x105C 
01BB   07??           01616         ADDWF   r0x101C,F
                      01617 ;; ***  addSign  861
                      01618 ;;; /home/sdcc-builder/build/sdcc-build/orig/sdcc/src/pic14/genarith.c:862:addSign *{*
                      01619 ;;; /home/sdcc-builder/build/sdcc-build/orig/sdcc/src/pic14/gen.c:2316:resultRemat *{*
                      01620 ;;; /home/sdcc-builder/build/sdcc-build/orig/sdcc/src/pic14/gen.c:6162:genPointerGet *{*
                      01621 ;; ***  genPointerGet  6163
                      01622 ;;; /home/sdcc-builder/build/sdcc-build/orig/sdcc/src/pic14/gen.c:5944:genNearPointerGet *{*
                      01623 ;; ***  genNearPointerGet  5945
                      01624 ;;      694 register type nRegs=2
                      01625 ;; ***  genNearPointerGet  5961
                      01626 ;;      694 register type nRegs=1
                      01627 ;;; /home/sdcc-builder/build/sdcc-build/orig/sdcc/src/pic14/gen.c:1343:mov2w_op *{*
                      01628 ;; ***  mov2w  1381  offset=0
                      01629 ;; >>> /home/sdcc-builder/build/sdcc-build/orig/sdcc/src/pic14/gen.c:1386:mov2w
                      01630 ;;      1109 rIdx = r0x105B 
01BC   08??           01631         MOVF    r0x101B,W
                      01632 ;; >>> /home/sdcc-builder/build/sdcc-build/orig/sdcc/src/pic14/gen.c:5602:setup_fsr
01BD   1283 1303      01633         BANKSEL FSR
01BF   0084           01634         MOVWF   FSR
                      01635 ;;; /home/sdcc-builder/build/sdcc-build/orig/sdcc/src/pic14/gen.c:5553:SetIrp *{*
                      01636 ;; >>> /home/sdcc-builder/build/sdcc-build/orig/sdcc/src/pic14/gen.c:5580:SetIrp
01C0   1383           01637         BCF     STATUS,7
                      01638 ;; >>> /home/sdcc-builder/build/sdcc-build/orig/sdcc/src/pic14/gen.c:5583:SetIrp
01C1   ???? ????      01639         BANKSEL r0x101C
01C3   18??           01640         BTFSC   r0x101C,0
                      01641 ;; >>> /home/sdcc-builder/build/sdcc-build/orig/sdcc/src/pic14/gen.c:5584:SetIrp
01C4   1783           01642         BSF     STATUS,7
                      01643 ;; ***  genNearPointerGet  5988
                      01644 ;; >>> /home/sdcc-builder/build/sdcc-build/orig/sdcc/src/pic14/gen.c:5995:genNearPointerGet
01C5   1283 1303      01645         BANKSEL INDF
01C7   0800           01646         MOVF    INDF,W
                      01647 ;; >>> /home/sdcc-builder/build/sdcc-build/orig/sdcc/src/pic14/gen.c:6002:genNearPointerGet
                      01648 ;;      1109 rIdx = r0x105D 
01C8   ???? ????      01649         BANKSEL r0x101D
01CA   00??           01650         MOVWF   r0x101D
01CB   3A01           01651         XORLW   0x01
                      01652 ;; >>> /home/sdcc-builder/build/sdcc-build/orig/sdcc/src/pic14/gen.c:3687:genCmpEq
01CC   1D03           01653         BTFSS   STATUS,2
                      01654 ;; >>> /home/sdcc-builder/build/sdcc-build/orig/sdcc/src/pic14/gen.c:3690:genCmpEq
                      01655 ;; ***  popGetLabel  key=36, label offset 21
01CD   2???           01656         GOTO    _00157_DS_
                      01657 ;;; /home/sdcc-builder/build/sdcc-build/orig/sdcc/src/pic14/gen.c:2316:resultRemat *{*
                      01658 ;;; /home/sdcc-builder/build/sdcc-build/orig/sdcc/src/pic14/gen.c:2316:resultRemat *{*
                      01659 ;; ***  genPlus  611
                      01660 ;;; /home/sdcc-builder/build/sdcc-build/orig/sdcc/src/pic14/genarith.c:612:genPlus *{*
                      01661 ;;      694 register type nRegs=2
                      01662 ;;      694 register type nRegs=2
gpasm-1.4.0 #1106 (Oct  6 2014) obj\Debug\But   5-1-2022  15:39:59          PAGE 33


LOC    OBJECT CODE    LINE  SOURCE TEXT
  VALUE

                      01663 ;;      line = 618 result AOP_REG=r0x105B, size=2, left AOP_REG=r0x1057, size=2, right AOP_LIT=0x03, siz
                            e=1
                      01664 ;;; /home/sdcc-builder/build/sdcc-build/orig/sdcc/src/pic14/genarith.c:142:genPlusIncr *{*
                      01665 ;; ***  genPlusIncr  144
                      01666 ;;      result AOP_REG, left AOP_REG, right AOP_LIT
                      01667 ;;      genPlusIncr  156
                      01668 ;;      adding lit to something. size 2
                      01669 ;;; /home/sdcc-builder/build/sdcc-build/orig/sdcc/src/pic14/genarith.c:269:genAddLit *{*
                      01670 ;; ***  genAddLit  270
                      01671 ;;  left and result aren't same genAddLit  514
                      01672 ;; >>> /home/sdcc-builder/build/sdcc-build/orig/sdcc/src/pic14/genarith.c:546:genAddLit
                      01673         .line   141; "Button.c" (SWs_Info[current_SW].sw_samples[3] == SW_RELEASED_LEVEL)&&
01CE   3003           01674         MOVLW   0x03
                      01675 ;; >>> /home/sdcc-builder/build/sdcc-build/orig/sdcc/src/pic14/genarith.c:547:genAddLit
                      01676 ;;      1109 rIdx = r0x1057 
01CF   07??           01677         ADDWF   r0x1017,W
                      01678 ;;; /home/sdcc-builder/build/sdcc-build/orig/sdcc/src/pic14/genarith.c:253:emitMOVWF *{*
                      01679 ;; >>> /home/sdcc-builder/build/sdcc-build/orig/sdcc/src/pic14/genarith.c:257:emitMOVWF
                      01680 ;;      1109 rIdx = r0x105B 
01D0   00??           01681         MOVWF   r0x101B
                      01682 ;; >>> /home/sdcc-builder/build/sdcc-build/orig/sdcc/src/pic14/genarith.c:584:genAddLit
                      01683 ;;      1109 rIdx = r0x105C 
01D1   01??           01684         CLRF    r0x101C
                      01685 ;; >>> /home/sdcc-builder/build/sdcc-build/orig/sdcc/src/pic14/genarith.c:585:genAddLit
                      01686 ;;      1109 rIdx = r0x105C 
01D2   0D??           01687         RLF     r0x101C,F
                      01688 ;; >>> /home/sdcc-builder/build/sdcc-build/orig/sdcc/src/pic14/genarith.c:586:genAddLit
                      01689 ;;      1109 rIdx = r0x1058 
01D3   08??           01690         MOVF    r0x1018,W
                      01691 ;; >>> /home/sdcc-builder/build/sdcc-build/orig/sdcc/src/pic14/genarith.c:587:genAddLit
                      01692 ;;      1109 rIdx = r0x105C 
01D4   07??           01693         ADDWF   r0x101C,F
                      01694 ;; ***  addSign  861
                      01695 ;;; /home/sdcc-builder/build/sdcc-build/orig/sdcc/src/pic14/genarith.c:862:addSign *{*
                      01696 ;;; /home/sdcc-builder/build/sdcc-build/orig/sdcc/src/pic14/gen.c:2316:resultRemat *{*
                      01697 ;;; /home/sdcc-builder/build/sdcc-build/orig/sdcc/src/pic14/gen.c:6162:genPointerGet *{*
                      01698 ;; ***  genPointerGet  6163
                      01699 ;;; /home/sdcc-builder/build/sdcc-build/orig/sdcc/src/pic14/gen.c:5944:genNearPointerGet *{*
                      01700 ;; ***  genNearPointerGet  5945
                      01701 ;;      694 register type nRegs=2
                      01702 ;; ***  genNearPointerGet  5961
                      01703 ;;      694 register type nRegs=1
                      01704 ;;; /home/sdcc-builder/build/sdcc-build/orig/sdcc/src/pic14/gen.c:1343:mov2w_op *{*
                      01705 ;; ***  mov2w  1381  offset=0
                      01706 ;; >>> /home/sdcc-builder/build/sdcc-build/orig/sdcc/src/pic14/gen.c:1386:mov2w
                      01707 ;;      1109 rIdx = r0x105B 
01D5   08??           01708         MOVF    r0x101B,W
                      01709 ;; >>> /home/sdcc-builder/build/sdcc-build/orig/sdcc/src/pic14/gen.c:5602:setup_fsr
01D6   1283 1303      01710         BANKSEL FSR
01D8   0084           01711         MOVWF   FSR
                      01712 ;;; /home/sdcc-builder/build/sdcc-build/orig/sdcc/src/pic14/gen.c:5553:SetIrp *{*
                      01713 ;; >>> /home/sdcc-builder/build/sdcc-build/orig/sdcc/src/pic14/gen.c:5580:SetIrp
01D9   1383           01714         BCF     STATUS,7
gpasm-1.4.0 #1106 (Oct  6 2014) obj\Debug\But   5-1-2022  15:39:59          PAGE 34


LOC    OBJECT CODE    LINE  SOURCE TEXT
  VALUE

                      01715 ;; >>> /home/sdcc-builder/build/sdcc-build/orig/sdcc/src/pic14/gen.c:5583:SetIrp
01DA   ???? ????      01716         BANKSEL r0x101C
01DC   18??           01717         BTFSC   r0x101C,0
                      01718 ;; >>> /home/sdcc-builder/build/sdcc-build/orig/sdcc/src/pic14/gen.c:5584:SetIrp
01DD   1783           01719         BSF     STATUS,7
                      01720 ;; ***  genNearPointerGet  5988
                      01721 ;; >>> /home/sdcc-builder/build/sdcc-build/orig/sdcc/src/pic14/gen.c:5995:genNearPointerGet
01DE   1283 1303      01722         BANKSEL INDF
01E0   0800           01723         MOVF    INDF,W
                      01724 ;; >>> /home/sdcc-builder/build/sdcc-build/orig/sdcc/src/pic14/gen.c:6002:genNearPointerGet
                      01725 ;;      1109 rIdx = r0x105D 
01E1   ???? ????      01726         BANKSEL r0x101D
01E3   00??           01727         MOVWF   r0x101D
01E4   3A01           01728         XORLW   0x01
                      01729 ;; >>> /home/sdcc-builder/build/sdcc-build/orig/sdcc/src/pic14/gen.c:3687:genCmpEq
01E5   1D03           01730         BTFSS   STATUS,2
                      01731 ;; >>> /home/sdcc-builder/build/sdcc-build/orig/sdcc/src/pic14/gen.c:3690:genCmpEq
                      01732 ;; ***  popGetLabel  key=36, label offset 21
01E6   2???           01733         GOTO    _00157_DS_
                      01734 ;;; /home/sdcc-builder/build/sdcc-build/orig/sdcc/src/pic14/gen.c:2316:resultRemat *{*
                      01735 ;;; /home/sdcc-builder/build/sdcc-build/orig/sdcc/src/pic14/gen.c:2316:resultRemat *{*
                      01736 ;; ***  genPlus  611
                      01737 ;;; /home/sdcc-builder/build/sdcc-build/orig/sdcc/src/pic14/genarith.c:612:genPlus *{*
                      01738 ;;      694 register type nRegs=2
                      01739 ;;      694 register type nRegs=2
                      01740 ;;      line = 618 result AOP_REG=r0x105B, size=2, left AOP_REG=r0x1057, size=2, right AOP_LIT=0x01, siz
                            e=1
                      01741 ;;; /home/sdcc-builder/build/sdcc-build/orig/sdcc/src/pic14/genarith.c:142:genPlusIncr *{*
                      01742 ;; ***  genPlusIncr  144
                      01743 ;;      result AOP_REG, left AOP_REG, right AOP_LIT
                      01744 ;;      genPlusIncr  156
                      01745 ;;      genPlusIncr  180
                      01746 ;;      adding lit to something. size 2
                      01747 ;;; /home/sdcc-builder/build/sdcc-build/orig/sdcc/src/pic14/genarith.c:269:genAddLit *{*
                      01748 ;; ***  genAddLit  270
                      01749 ;;  left and result aren't same genAddLit  514
                      01750 ;; >>> /home/sdcc-builder/build/sdcc-build/orig/sdcc/src/pic14/genarith.c:546:genAddLit
                      01751         .line   142; "Button.c" (SWs_Info[current_SW].sw_samples[1] == SW_PRESSED_LEVEL)&&
01E7   3001           01752         MOVLW   0x01
                      01753 ;; >>> /home/sdcc-builder/build/sdcc-build/orig/sdcc/src/pic14/genarith.c:547:genAddLit
                      01754 ;;      1109 rIdx = r0x1057 
01E8   07??           01755         ADDWF   r0x1017,W
                      01756 ;;; /home/sdcc-builder/build/sdcc-build/orig/sdcc/src/pic14/genarith.c:253:emitMOVWF *{*
                      01757 ;; >>> /home/sdcc-builder/build/sdcc-build/orig/sdcc/src/pic14/genarith.c:257:emitMOVWF
                      01758 ;;      1109 rIdx = r0x105B 
01E9   00??           01759         MOVWF   r0x101B
                      01760 ;; >>> /home/sdcc-builder/build/sdcc-build/orig/sdcc/src/pic14/genarith.c:584:genAddLit
                      01761 ;;      1109 rIdx = r0x105C 
01EA   01??           01762         CLRF    r0x101C
                      01763 ;; >>> /home/sdcc-builder/build/sdcc-build/orig/sdcc/src/pic14/genarith.c:585:genAddLit
                      01764 ;;      1109 rIdx = r0x105C 
01EB   0D??           01765         RLF     r0x101C,F
                      01766 ;; >>> /home/sdcc-builder/build/sdcc-build/orig/sdcc/src/pic14/genarith.c:586:genAddLit
gpasm-1.4.0 #1106 (Oct  6 2014) obj\Debug\But   5-1-2022  15:39:59          PAGE 35


LOC    OBJECT CODE    LINE  SOURCE TEXT
  VALUE

                      01767 ;;      1109 rIdx = r0x1058 
01EC   08??           01768         MOVF    r0x1018,W
                      01769 ;; >>> /home/sdcc-builder/build/sdcc-build/orig/sdcc/src/pic14/genarith.c:587:genAddLit
                      01770 ;;      1109 rIdx = r0x105C 
01ED   07??           01771         ADDWF   r0x101C,F
                      01772 ;; ***  addSign  861
                      01773 ;;; /home/sdcc-builder/build/sdcc-build/orig/sdcc/src/pic14/genarith.c:862:addSign *{*
                      01774 ;;; /home/sdcc-builder/build/sdcc-build/orig/sdcc/src/pic14/gen.c:2316:resultRemat *{*
                      01775 ;;; /home/sdcc-builder/build/sdcc-build/orig/sdcc/src/pic14/gen.c:6162:genPointerGet *{*
                      01776 ;; ***  genPointerGet  6163
                      01777 ;;; /home/sdcc-builder/build/sdcc-build/orig/sdcc/src/pic14/gen.c:5944:genNearPointerGet *{*
                      01778 ;; ***  genNearPointerGet  5945
                      01779 ;;      694 register type nRegs=2
                      01780 ;; ***  genNearPointerGet  5961
                      01781 ;;      694 register type nRegs=1
                      01782 ;;; /home/sdcc-builder/build/sdcc-build/orig/sdcc/src/pic14/gen.c:1343:mov2w_op *{*
                      01783 ;; ***  mov2w  1381  offset=0
                      01784 ;; >>> /home/sdcc-builder/build/sdcc-build/orig/sdcc/src/pic14/gen.c:1386:mov2w
                      01785 ;;      1109 rIdx = r0x105B 
01EE   08??           01786         MOVF    r0x101B,W
                      01787 ;; >>> /home/sdcc-builder/build/sdcc-build/orig/sdcc/src/pic14/gen.c:5602:setup_fsr
01EF   1283 1303      01788         BANKSEL FSR
01F1   0084           01789         MOVWF   FSR
                      01790 ;;; /home/sdcc-builder/build/sdcc-build/orig/sdcc/src/pic14/gen.c:5553:SetIrp *{*
                      01791 ;; >>> /home/sdcc-builder/build/sdcc-build/orig/sdcc/src/pic14/gen.c:5580:SetIrp
01F2   1383           01792         BCF     STATUS,7
                      01793 ;; >>> /home/sdcc-builder/build/sdcc-build/orig/sdcc/src/pic14/gen.c:5583:SetIrp
01F3   ???? ????      01794         BANKSEL r0x101C
01F5   18??           01795         BTFSC   r0x101C,0
                      01796 ;; >>> /home/sdcc-builder/build/sdcc-build/orig/sdcc/src/pic14/gen.c:5584:SetIrp
01F6   1783           01797         BSF     STATUS,7
                      01798 ;; ***  genNearPointerGet  5988
                      01799 ;; >>> /home/sdcc-builder/build/sdcc-build/orig/sdcc/src/pic14/gen.c:5995:genNearPointerGet
01F7   1283 1303      01800         BANKSEL INDF
01F9   0800           01801         MOVF    INDF,W
                      01802 ;; >>> /home/sdcc-builder/build/sdcc-build/orig/sdcc/src/pic14/gen.c:6002:genNearPointerGet
                      01803 ;;      1109 rIdx = r0x105D 
01FA   ???? ????      01804         BANKSEL r0x101D
01FC   00??           01805         MOVWF   r0x101D
                      01806 ;;; /home/sdcc-builder/build/sdcc-build/orig/sdcc/src/pic14/gen.c:2316:resultRemat *{*
                      01807 ;;; /home/sdcc-builder/build/sdcc-build/orig/sdcc/src/pic14/gen.c:6759:genIfx *{*
                      01808 ;; ***  genIfx  6760
                      01809 ;;      694 register type nRegs=1
                      01810 ;; ***  pic14_toBoolean  1515
                      01811 ;; >>> /home/sdcc-builder/build/sdcc-build/orig/sdcc/src/pic14/gen.c:1522:pic14_toBoolean
01FD   08??           01812         MOVF    r0x101D,W
01FE   1D03           01813         BTFSS   STATUS,2
                      01814 ;; >>> /home/sdcc-builder/build/sdcc-build/orig/sdcc/src/pic14/gen.c:6809:genIfx
                      01815 ;; ***  popGetLabel  key=36, label offset 21
01FF   2???           01816         GOTO    _00157_DS_
                      01817 ;;; /home/sdcc-builder/build/sdcc-build/orig/sdcc/src/pic14/gen.c:2316:resultRemat *{*
                      01818 ;;; /home/sdcc-builder/build/sdcc-build/orig/sdcc/src/pic14/gen.c:6162:genPointerGet *{*
                      01819 ;; ***  genPointerGet  6163
gpasm-1.4.0 #1106 (Oct  6 2014) obj\Debug\But   5-1-2022  15:39:59          PAGE 36


LOC    OBJECT CODE    LINE  SOURCE TEXT
  VALUE

                      01820 ;;; /home/sdcc-builder/build/sdcc-build/orig/sdcc/src/pic14/gen.c:5944:genNearPointerGet *{*
                      01821 ;; ***  genNearPointerGet  5945
                      01822 ;;      694 register type nRegs=2
                      01823 ;; ***  genNearPointerGet  5961
                      01824 ;;      694 register type nRegs=1
                      01825 ;;; /home/sdcc-builder/build/sdcc-build/orig/sdcc/src/pic14/gen.c:1343:mov2w_op *{*
                      01826 ;; ***  mov2w  1381  offset=0
                      01827 ;; >>> /home/sdcc-builder/build/sdcc-build/orig/sdcc/src/pic14/gen.c:1386:mov2w
                      01828 ;;      1109 rIdx = r0x1057 
                      01829         .line   143; "Button.c" (SWs_Info[current_SW].sw_samples[0] == SW_PRESSED_LEVEL))
0200   08??           01830         MOVF    r0x1017,W
                      01831 ;; >>> /home/sdcc-builder/build/sdcc-build/orig/sdcc/src/pic14/gen.c:5602:setup_fsr
0201   1283 1303      01832         BANKSEL FSR
0203   0084           01833         MOVWF   FSR
                      01834 ;;; /home/sdcc-builder/build/sdcc-build/orig/sdcc/src/pic14/gen.c:5553:SetIrp *{*
                      01835 ;; >>> /home/sdcc-builder/build/sdcc-build/orig/sdcc/src/pic14/gen.c:5580:SetIrp
0204   1383           01836         BCF     STATUS,7
                      01837 ;; >>> /home/sdcc-builder/build/sdcc-build/orig/sdcc/src/pic14/gen.c:5583:SetIrp
0205   ???? ????      01838         BANKSEL r0x1018
0207   18??           01839         BTFSC   r0x1018,0
                      01840 ;; >>> /home/sdcc-builder/build/sdcc-build/orig/sdcc/src/pic14/gen.c:5584:SetIrp
0208   1783           01841         BSF     STATUS,7
                      01842 ;; ***  genNearPointerGet  5988
                      01843 ;; >>> /home/sdcc-builder/build/sdcc-build/orig/sdcc/src/pic14/gen.c:5995:genNearPointerGet
0209   1283 1303      01844         BANKSEL INDF
020B   0800           01845         MOVF    INDF,W
                      01846 ;; >>> /home/sdcc-builder/build/sdcc-build/orig/sdcc/src/pic14/gen.c:6002:genNearPointerGet
                      01847 ;;      1109 rIdx = r0x105B 
020C   ???? ????      01848         BANKSEL r0x101B
020E   00??           01849         MOVWF   r0x101B
                      01850 ;;; /home/sdcc-builder/build/sdcc-build/orig/sdcc/src/pic14/gen.c:2316:resultRemat *{*
                      01851 ;;; /home/sdcc-builder/build/sdcc-build/orig/sdcc/src/pic14/gen.c:6759:genIfx *{*
                      01852 ;; ***  genIfx  6760
                      01853 ;;      694 register type nRegs=1
                      01854 ;; ***  pic14_toBoolean  1515
                      01855 ;; >>> /home/sdcc-builder/build/sdcc-build/orig/sdcc/src/pic14/gen.c:1522:pic14_toBoolean
020F   08??           01856         MOVF    r0x101B,W
0210   1D03           01857         BTFSS   STATUS,2
                      01858 ;; >>> /home/sdcc-builder/build/sdcc-build/orig/sdcc/src/pic14/gen.c:6809:genIfx
                      01859 ;; ***  popGetLabel  key=36, label offset 21
0211   2???           01860         GOTO    _00157_DS_
                      01861 ;;; /home/sdcc-builder/build/sdcc-build/orig/sdcc/src/pic14/gen.c:2316:resultRemat *{*
                      01862 ;;; /home/sdcc-builder/build/sdcc-build/orig/sdcc/src/pic14/gen.c:6686:genPointerSet *{*
                      01863 ;; ***  genPointerSet  6687
                      01864 ;;; /home/sdcc-builder/build/sdcc-build/orig/sdcc/src/pic14/gen.c:6505:genNearPointerSet *{*
                      01865 ;; ***  genNearPointerSet  6506
                      01866 ;;      694 register type nRegs=2
                      01867 ;; ***  genNearPointerSet  6521
                      01868 ;;      line = 6523 result AOP_REG=r0x1059, size=2, left -=-, size=0, right AOP_LIT=0x03, size=1
                      01869 ;;; /home/sdcc-builder/build/sdcc-build/orig/sdcc/src/pic14/gen.c:1343:mov2w_op *{*
                      01870 ;; ***  mov2w  1381  offset=0
                      01871 ;; >>> /home/sdcc-builder/build/sdcc-build/orig/sdcc/src/pic14/gen.c:1386:mov2w
                      01872 ;;      1109 rIdx = r0x1059 
gpasm-1.4.0 #1106 (Oct  6 2014) obj\Debug\But   5-1-2022  15:39:59          PAGE 37


LOC    OBJECT CODE    LINE  SOURCE TEXT
  VALUE

                      01873         .line   145; "Button.c" SWs_Info[current_SW].sw_state = SW_PRE_RELEASED;
0212   08??           01874         MOVF    r0x1019,W
                      01875 ;; >>> /home/sdcc-builder/build/sdcc-build/orig/sdcc/src/pic14/gen.c:5602:setup_fsr
0213   1283 1303      01876         BANKSEL FSR
0215   0084           01877         MOVWF   FSR
                      01878 ;;; /home/sdcc-builder/build/sdcc-build/orig/sdcc/src/pic14/gen.c:5553:SetIrp *{*
                      01879 ;; >>> /home/sdcc-builder/build/sdcc-build/orig/sdcc/src/pic14/gen.c:5580:SetIrp
0216   1383           01880         BCF     STATUS,7
                      01881 ;; >>> /home/sdcc-builder/build/sdcc-build/orig/sdcc/src/pic14/gen.c:5583:SetIrp
0217   ???? ????      01882         BANKSEL r0x101A
0219   18??           01883         BTFSC   r0x101A,0
                      01884 ;; >>> /home/sdcc-builder/build/sdcc-build/orig/sdcc/src/pic14/gen.c:5584:SetIrp
021A   1783           01885         BSF     STATUS,7
                      01886 ;; ***  genNearPointerSet  6548
                      01887 ;; >>> /home/sdcc-builder/build/sdcc-build/orig/sdcc/src/pic14/gen.c:6560:genNearPointerSet
021B   3003           01888         MOVLW   0x03
                      01889 ;; >>> /home/sdcc-builder/build/sdcc-build/orig/sdcc/src/pic14/gen.c:6569:genNearPointerSet
021C   1283 1303      01890         BANKSEL INDF
021E   0080           01891         MOVWF   INDF
                      01892 ;; ***  genNearPointerSet  6577
                      01893 ;; ***  genNearPointerSet  6603
                      01894 ;;; /home/sdcc-builder/build/sdcc-build/orig/sdcc/src/pic14/gen.c:2316:resultRemat *{*
                      01895 ;;; /home/sdcc-builder/build/sdcc-build/orig/sdcc/src/pic14/gen.c:2778:genGoto *{*
                      01896 ;; >>> /home/sdcc-builder/build/sdcc-build/orig/sdcc/src/pic14/gen.c:2780:genGoto
                      01897 ;; ***  popGetLabel  key=36, label offset 21
                      01898         .line   151; "Button.c" break;
021F   2???           01899         GOTO    _00157_DS_
                      01900 ;;; /home/sdcc-builder/build/sdcc-build/orig/sdcc/src/pic14/gen.c:2316:resultRemat *{*
                      01901 ;;; /home/sdcc-builder/build/sdcc-build/orig/sdcc/src/pic14/gen.c:2760:genLabel *{*
                      01902 ;; ***  genLabel  2763
                      01903 ;;; /home/sdcc-builder/build/sdcc-build/orig/sdcc/src/pic14/gen.c:2316:resultRemat *{*
                      01904 ;; ***  genPlus  611
                      01905 ;;; /home/sdcc-builder/build/sdcc-build/orig/sdcc/src/pic14/genarith.c:612:genPlus *{*
                      01906 ;;      694 register type nRegs=2
                      01907 ;;      694 register type nRegs=2
                      01908 ;;      line = 618 result AOP_REG=r0x105B, size=2, left AOP_REG=r0x1057, size=2, right AOP_LIT=0x04, siz
                            e=1
                      01909 ;;; /home/sdcc-builder/build/sdcc-build/orig/sdcc/src/pic14/genarith.c:142:genPlusIncr *{*
                      01910 ;; ***  genPlusIncr  144
                      01911 ;;      result AOP_REG, left AOP_REG, right AOP_LIT
                      01912 ;;      genPlusIncr  156
                      01913 ;;      adding lit to something. size 2
                      01914 ;;; /home/sdcc-builder/build/sdcc-build/orig/sdcc/src/pic14/genarith.c:269:genAddLit *{*
                      01915 ;; ***  genAddLit  270
                      01916 ;;  left and result aren't same genAddLit  514
                      01917 ;; >>> /home/sdcc-builder/build/sdcc-build/orig/sdcc/src/pic14/genarith.c:546:genAddLit
0220                  01918 _00146_DS_
                      01919         .line   154; "Button.c" if ((SWs_Info[current_SW].sw_samples[4] == SW_RELEASED_LEVEL)&&
0220   3004           01920         MOVLW   0x04
                      01921 ;; >>> /home/sdcc-builder/build/sdcc-build/orig/sdcc/src/pic14/genarith.c:547:genAddLit
                      01922 ;;      1109 rIdx = r0x1057 
0221   ???? ????      01923         BANKSEL r0x1017
0223   07??           01924         ADDWF   r0x1017,W
gpasm-1.4.0 #1106 (Oct  6 2014) obj\Debug\But   5-1-2022  15:39:59          PAGE 38


LOC    OBJECT CODE    LINE  SOURCE TEXT
  VALUE

                      01925 ;;; /home/sdcc-builder/build/sdcc-build/orig/sdcc/src/pic14/genarith.c:253:emitMOVWF *{*
                      01926 ;; >>> /home/sdcc-builder/build/sdcc-build/orig/sdcc/src/pic14/genarith.c:257:emitMOVWF
                      01927 ;;      1109 rIdx = r0x105B 
0224   00??           01928         MOVWF   r0x101B
                      01929 ;; >>> /home/sdcc-builder/build/sdcc-build/orig/sdcc/src/pic14/genarith.c:584:genAddLit
                      01930 ;;      1109 rIdx = r0x105C 
0225   01??           01931         CLRF    r0x101C
                      01932 ;; >>> /home/sdcc-builder/build/sdcc-build/orig/sdcc/src/pic14/genarith.c:585:genAddLit
                      01933 ;;      1109 rIdx = r0x105C 
0226   0D??           01934         RLF     r0x101C,F
                      01935 ;; >>> /home/sdcc-builder/build/sdcc-build/orig/sdcc/src/pic14/genarith.c:586:genAddLit
                      01936 ;;      1109 rIdx = r0x1058 
0227   08??           01937         MOVF    r0x1018,W
                      01938 ;; >>> /home/sdcc-builder/build/sdcc-build/orig/sdcc/src/pic14/genarith.c:587:genAddLit
                      01939 ;;      1109 rIdx = r0x105C 
0228   07??           01940         ADDWF   r0x101C,F
                      01941 ;; ***  addSign  861
                      01942 ;;; /home/sdcc-builder/build/sdcc-build/orig/sdcc/src/pic14/genarith.c:862:addSign *{*
                      01943 ;;; /home/sdcc-builder/build/sdcc-build/orig/sdcc/src/pic14/gen.c:2316:resultRemat *{*
                      01944 ;;; /home/sdcc-builder/build/sdcc-build/orig/sdcc/src/pic14/gen.c:6162:genPointerGet *{*
                      01945 ;; ***  genPointerGet  6163
                      01946 ;;; /home/sdcc-builder/build/sdcc-build/orig/sdcc/src/pic14/gen.c:5944:genNearPointerGet *{*
                      01947 ;; ***  genNearPointerGet  5945
                      01948 ;;      694 register type nRegs=2
                      01949 ;; ***  genNearPointerGet  5961
                      01950 ;;      694 register type nRegs=1
                      01951 ;;; /home/sdcc-builder/build/sdcc-build/orig/sdcc/src/pic14/gen.c:1343:mov2w_op *{*
                      01952 ;; ***  mov2w  1381  offset=0
                      01953 ;; >>> /home/sdcc-builder/build/sdcc-build/orig/sdcc/src/pic14/gen.c:1386:mov2w
                      01954 ;;      1109 rIdx = r0x105B 
0229   08??           01955         MOVF    r0x101B,W
                      01956 ;; >>> /home/sdcc-builder/build/sdcc-build/orig/sdcc/src/pic14/gen.c:5602:setup_fsr
022A   1283 1303      01957         BANKSEL FSR
022C   0084           01958         MOVWF   FSR
                      01959 ;;; /home/sdcc-builder/build/sdcc-build/orig/sdcc/src/pic14/gen.c:5553:SetIrp *{*
                      01960 ;; >>> /home/sdcc-builder/build/sdcc-build/orig/sdcc/src/pic14/gen.c:5580:SetIrp
022D   1383           01961         BCF     STATUS,7
                      01962 ;; >>> /home/sdcc-builder/build/sdcc-build/orig/sdcc/src/pic14/gen.c:5583:SetIrp
022E   ???? ????      01963         BANKSEL r0x101C
0230   18??           01964         BTFSC   r0x101C,0
                      01965 ;; >>> /home/sdcc-builder/build/sdcc-build/orig/sdcc/src/pic14/gen.c:5584:SetIrp
0231   1783           01966         BSF     STATUS,7
                      01967 ;; ***  genNearPointerGet  5988
                      01968 ;; >>> /home/sdcc-builder/build/sdcc-build/orig/sdcc/src/pic14/gen.c:5995:genNearPointerGet
0232   1283 1303      01969         BANKSEL INDF
0234   0800           01970         MOVF    INDF,W
                      01971 ;; >>> /home/sdcc-builder/build/sdcc-build/orig/sdcc/src/pic14/gen.c:6002:genNearPointerGet
                      01972 ;;      1109 rIdx = r0x105D 
0235   ???? ????      01973         BANKSEL r0x101D
0237   00??           01974         MOVWF   r0x101D
0238   3A01           01975         XORLW   0x01
                      01976 ;; >>> /home/sdcc-builder/build/sdcc-build/orig/sdcc/src/pic14/gen.c:3687:genCmpEq
0239   1D03           01977         BTFSS   STATUS,2
gpasm-1.4.0 #1106 (Oct  6 2014) obj\Debug\But   5-1-2022  15:39:59          PAGE 39


LOC    OBJECT CODE    LINE  SOURCE TEXT
  VALUE

                      01978 ;; >>> /home/sdcc-builder/build/sdcc-build/orig/sdcc/src/pic14/gen.c:3690:genCmpEq
                      01979 ;; ***  popGetLabel  key=36, label offset 21
023A   2???           01980         GOTO    _00157_DS_
                      01981 ;;; /home/sdcc-builder/build/sdcc-build/orig/sdcc/src/pic14/gen.c:2316:resultRemat *{*
                      01982 ;;; /home/sdcc-builder/build/sdcc-build/orig/sdcc/src/pic14/gen.c:2316:resultRemat *{*
                      01983 ;; ***  genPlus  611
                      01984 ;;; /home/sdcc-builder/build/sdcc-build/orig/sdcc/src/pic14/genarith.c:612:genPlus *{*
                      01985 ;;      694 register type nRegs=2
                      01986 ;;      694 register type nRegs=2
                      01987 ;;      line = 618 result AOP_REG=r0x105B, size=2, left AOP_REG=r0x1057, size=2, right AOP_LIT=0x03, siz
                            e=1
                      01988 ;;; /home/sdcc-builder/build/sdcc-build/orig/sdcc/src/pic14/genarith.c:142:genPlusIncr *{*
                      01989 ;; ***  genPlusIncr  144
                      01990 ;;      result AOP_REG, left AOP_REG, right AOP_LIT
                      01991 ;;      genPlusIncr  156
                      01992 ;;      adding lit to something. size 2
                      01993 ;;; /home/sdcc-builder/build/sdcc-build/orig/sdcc/src/pic14/genarith.c:269:genAddLit *{*
                      01994 ;; ***  genAddLit  270
                      01995 ;;  left and result aren't same genAddLit  514
                      01996 ;; >>> /home/sdcc-builder/build/sdcc-build/orig/sdcc/src/pic14/genarith.c:546:genAddLit
                      01997         .line   155; "Button.c" (SWs_Info[current_SW].sw_samples[3] == SW_RELEASED_LEVEL)&&
023B   3003           01998         MOVLW   0x03
                      01999 ;; >>> /home/sdcc-builder/build/sdcc-build/orig/sdcc/src/pic14/genarith.c:547:genAddLit
                      02000 ;;      1109 rIdx = r0x1057 
023C   07??           02001         ADDWF   r0x1017,W
                      02002 ;;; /home/sdcc-builder/build/sdcc-build/orig/sdcc/src/pic14/genarith.c:253:emitMOVWF *{*
                      02003 ;; >>> /home/sdcc-builder/build/sdcc-build/orig/sdcc/src/pic14/genarith.c:257:emitMOVWF
                      02004 ;;      1109 rIdx = r0x105B 
023D   00??           02005         MOVWF   r0x101B
                      02006 ;; >>> /home/sdcc-builder/build/sdcc-build/orig/sdcc/src/pic14/genarith.c:584:genAddLit
                      02007 ;;      1109 rIdx = r0x105C 
023E   01??           02008         CLRF    r0x101C
                      02009 ;; >>> /home/sdcc-builder/build/sdcc-build/orig/sdcc/src/pic14/genarith.c:585:genAddLit
                      02010 ;;      1109 rIdx = r0x105C 
023F   0D??           02011         RLF     r0x101C,F
                      02012 ;; >>> /home/sdcc-builder/build/sdcc-build/orig/sdcc/src/pic14/genarith.c:586:genAddLit
                      02013 ;;      1109 rIdx = r0x1058 
0240   08??           02014         MOVF    r0x1018,W
                      02015 ;; >>> /home/sdcc-builder/build/sdcc-build/orig/sdcc/src/pic14/genarith.c:587:genAddLit
                      02016 ;;      1109 rIdx = r0x105C 
0241   07??           02017         ADDWF   r0x101C,F
                      02018 ;; ***  addSign  861
                      02019 ;;; /home/sdcc-builder/build/sdcc-build/orig/sdcc/src/pic14/genarith.c:862:addSign *{*
                      02020 ;;; /home/sdcc-builder/build/sdcc-build/orig/sdcc/src/pic14/gen.c:2316:resultRemat *{*
                      02021 ;;; /home/sdcc-builder/build/sdcc-build/orig/sdcc/src/pic14/gen.c:6162:genPointerGet *{*
                      02022 ;; ***  genPointerGet  6163
                      02023 ;;; /home/sdcc-builder/build/sdcc-build/orig/sdcc/src/pic14/gen.c:5944:genNearPointerGet *{*
                      02024 ;; ***  genNearPointerGet  5945
                      02025 ;;      694 register type nRegs=2
                      02026 ;; ***  genNearPointerGet  5961
                      02027 ;;      694 register type nRegs=1
                      02028 ;;; /home/sdcc-builder/build/sdcc-build/orig/sdcc/src/pic14/gen.c:1343:mov2w_op *{*
                      02029 ;; ***  mov2w  1381  offset=0
gpasm-1.4.0 #1106 (Oct  6 2014) obj\Debug\But   5-1-2022  15:39:59          PAGE 40


LOC    OBJECT CODE    LINE  SOURCE TEXT
  VALUE

                      02030 ;; >>> /home/sdcc-builder/build/sdcc-build/orig/sdcc/src/pic14/gen.c:1386:mov2w
                      02031 ;;      1109 rIdx = r0x105B 
0242   08??           02032         MOVF    r0x101B,W
                      02033 ;; >>> /home/sdcc-builder/build/sdcc-build/orig/sdcc/src/pic14/gen.c:5602:setup_fsr
0243   1283 1303      02034         BANKSEL FSR
0245   0084           02035         MOVWF   FSR
                      02036 ;;; /home/sdcc-builder/build/sdcc-build/orig/sdcc/src/pic14/gen.c:5553:SetIrp *{*
                      02037 ;; >>> /home/sdcc-builder/build/sdcc-build/orig/sdcc/src/pic14/gen.c:5580:SetIrp
0246   1383           02038         BCF     STATUS,7
                      02039 ;; >>> /home/sdcc-builder/build/sdcc-build/orig/sdcc/src/pic14/gen.c:5583:SetIrp
0247   ???? ????      02040         BANKSEL r0x101C
0249   18??           02041         BTFSC   r0x101C,0
                      02042 ;; >>> /home/sdcc-builder/build/sdcc-build/orig/sdcc/src/pic14/gen.c:5584:SetIrp
024A   1783           02043         BSF     STATUS,7
                      02044 ;; ***  genNearPointerGet  5988
                      02045 ;; >>> /home/sdcc-builder/build/sdcc-build/orig/sdcc/src/pic14/gen.c:5995:genNearPointerGet
024B   1283 1303      02046         BANKSEL INDF
024D   0800           02047         MOVF    INDF,W
                      02048 ;; >>> /home/sdcc-builder/build/sdcc-build/orig/sdcc/src/pic14/gen.c:6002:genNearPointerGet
                      02049 ;;      1109 rIdx = r0x105D 
024E   ???? ????      02050         BANKSEL r0x101D
0250   00??           02051         MOVWF   r0x101D
0251   3A01           02052         XORLW   0x01
                      02053 ;; >>> /home/sdcc-builder/build/sdcc-build/orig/sdcc/src/pic14/gen.c:3687:genCmpEq
0252   1D03           02054         BTFSS   STATUS,2
                      02055 ;; >>> /home/sdcc-builder/build/sdcc-build/orig/sdcc/src/pic14/gen.c:3690:genCmpEq
                      02056 ;; ***  popGetLabel  key=36, label offset 21
0253   2???           02057         GOTO    _00157_DS_
                      02058 ;;; /home/sdcc-builder/build/sdcc-build/orig/sdcc/src/pic14/gen.c:2316:resultRemat *{*
                      02059 ;;; /home/sdcc-builder/build/sdcc-build/orig/sdcc/src/pic14/gen.c:2316:resultRemat *{*
                      02060 ;; ***  genPlus  611
                      02061 ;;; /home/sdcc-builder/build/sdcc-build/orig/sdcc/src/pic14/genarith.c:612:genPlus *{*
                      02062 ;;      694 register type nRegs=2
                      02063 ;;      694 register type nRegs=2
                      02064 ;;      line = 618 result AOP_REG=r0x1057, size=2, left AOP_REG=r0x1057, size=2, right AOP_LIT=0x02, siz
                            e=1
                      02065 ;;; /home/sdcc-builder/build/sdcc-build/orig/sdcc/src/pic14/genarith.c:142:genPlusIncr *{*
                      02066 ;; ***  genPlusIncr  144
                      02067 ;;      result AOP_REG, left AOP_REG, right AOP_LIT
                      02068 ;;      genPlusIncr  156
                      02069 ;;      genPlusIncr  180
                      02070 ;;      adding lit to something. size 2
                      02071 ;;; /home/sdcc-builder/build/sdcc-build/orig/sdcc/src/pic14/genarith.c:269:genAddLit *{*
                      02072 ;; ***  genAddLit  270
                      02073 ;; hi = 0       genAddLit  328
                      02074 ;; >>> /home/sdcc-builder/build/sdcc-build/orig/sdcc/src/pic14/genarith.c:344:genAddLit
                      02075         .line   156; "Button.c" (SWs_Info[current_SW].sw_samples[2] == SW_RELEASED_LEVEL))
0254   3002           02076         MOVLW   0x02
                      02077 ;; >>> /home/sdcc-builder/build/sdcc-build/orig/sdcc/src/pic14/genarith.c:345:genAddLit
                      02078 ;;      1109 rIdx = r0x1057 
0255   07??           02079         ADDWF   r0x1017,F
                      02080 ;; >>> /home/sdcc-builder/build/sdcc-build/orig/sdcc/src/pic14/genarith.c:346:genAddLit
0256   1803           02081         BTFSC   STATUS,0
gpasm-1.4.0 #1106 (Oct  6 2014) obj\Debug\But   5-1-2022  15:39:59          PAGE 41


LOC    OBJECT CODE    LINE  SOURCE TEXT
  VALUE

                      02082 ;; >>> /home/sdcc-builder/build/sdcc-build/orig/sdcc/src/pic14/genarith.c:347:genAddLit
                      02083 ;;      1109 rIdx = r0x1058 
0257   0A??           02084         INCF    r0x1018,F
                      02085 ;; ***  addSign  861
                      02086 ;;; /home/sdcc-builder/build/sdcc-build/orig/sdcc/src/pic14/genarith.c:862:addSign *{*
                      02087 ;;; /home/sdcc-builder/build/sdcc-build/orig/sdcc/src/pic14/gen.c:2316:resultRemat *{*
                      02088 ;;; /home/sdcc-builder/build/sdcc-build/orig/sdcc/src/pic14/gen.c:6162:genPointerGet *{*
                      02089 ;; ***  genPointerGet  6163
                      02090 ;;; /home/sdcc-builder/build/sdcc-build/orig/sdcc/src/pic14/gen.c:5944:genNearPointerGet *{*
                      02091 ;; ***  genNearPointerGet  5945
                      02092 ;;      694 register type nRegs=2
                      02093 ;; ***  genNearPointerGet  5961
                      02094 ;;      694 register type nRegs=1
                      02095 ;;; /home/sdcc-builder/build/sdcc-build/orig/sdcc/src/pic14/gen.c:1343:mov2w_op *{*
                      02096 ;; ***  mov2w  1381  offset=0
                      02097 ;; >>> /home/sdcc-builder/build/sdcc-build/orig/sdcc/src/pic14/gen.c:1386:mov2w
                      02098 ;;      1109 rIdx = r0x1057 
0258   08??           02099         MOVF    r0x1017,W
                      02100 ;; >>> /home/sdcc-builder/build/sdcc-build/orig/sdcc/src/pic14/gen.c:5602:setup_fsr
0259   1283 1303      02101         BANKSEL FSR
025B   0084           02102         MOVWF   FSR
                      02103 ;;; /home/sdcc-builder/build/sdcc-build/orig/sdcc/src/pic14/gen.c:5553:SetIrp *{*
                      02104 ;; >>> /home/sdcc-builder/build/sdcc-build/orig/sdcc/src/pic14/gen.c:5580:SetIrp
025C   1383           02105         BCF     STATUS,7
                      02106 ;; >>> /home/sdcc-builder/build/sdcc-build/orig/sdcc/src/pic14/gen.c:5583:SetIrp
025D   ???? ????      02107         BANKSEL r0x1018
025F   18??           02108         BTFSC   r0x1018,0
                      02109 ;; >>> /home/sdcc-builder/build/sdcc-build/orig/sdcc/src/pic14/gen.c:5584:SetIrp
0260   1783           02110         BSF     STATUS,7
                      02111 ;; ***  genNearPointerGet  5988
                      02112 ;; >>> /home/sdcc-builder/build/sdcc-build/orig/sdcc/src/pic14/gen.c:5995:genNearPointerGet
0261   1283 1303      02113         BANKSEL INDF
0263   0800           02114         MOVF    INDF,W
                      02115 ;; >>> /home/sdcc-builder/build/sdcc-build/orig/sdcc/src/pic14/gen.c:6002:genNearPointerGet
                      02116 ;;      1109 rIdx = r0x105B 
0264   ???? ????      02117         BANKSEL r0x101B
0266   00??           02118         MOVWF   r0x101B
0267   3A01           02119         XORLW   0x01
                      02120 ;; >>> /home/sdcc-builder/build/sdcc-build/orig/sdcc/src/pic14/gen.c:3687:genCmpEq
0268   1D03           02121         BTFSS   STATUS,2
                      02122 ;; >>> /home/sdcc-builder/build/sdcc-build/orig/sdcc/src/pic14/gen.c:3690:genCmpEq
                      02123 ;; ***  popGetLabel  key=36, label offset 21
0269   2???           02124         GOTO    _00157_DS_
                      02125 ;;; /home/sdcc-builder/build/sdcc-build/orig/sdcc/src/pic14/gen.c:2316:resultRemat *{*
                      02126 ;;; /home/sdcc-builder/build/sdcc-build/orig/sdcc/src/pic14/gen.c:2316:resultRemat *{*
                      02127 ;;; /home/sdcc-builder/build/sdcc-build/orig/sdcc/src/pic14/gen.c:6686:genPointerSet *{*
                      02128 ;; ***  genPointerSet  6687
                      02129 ;;; /home/sdcc-builder/build/sdcc-build/orig/sdcc/src/pic14/gen.c:6505:genNearPointerSet *{*
                      02130 ;; ***  genNearPointerSet  6506
                      02131 ;;      694 register type nRegs=2
                      02132 ;; ***  genNearPointerSet  6521
                      02133 ;;      line = 6523 result AOP_REG=r0x1059, size=2, left -=-, size=0, right AOP_LIT=0x00, size=1
                      02134 ;;; /home/sdcc-builder/build/sdcc-build/orig/sdcc/src/pic14/gen.c:1343:mov2w_op *{*
gpasm-1.4.0 #1106 (Oct  6 2014) obj\Debug\But   5-1-2022  15:39:59          PAGE 42


LOC    OBJECT CODE    LINE  SOURCE TEXT
  VALUE

                      02135 ;; ***  mov2w  1381  offset=0
                      02136 ;; >>> /home/sdcc-builder/build/sdcc-build/orig/sdcc/src/pic14/gen.c:1386:mov2w
                      02137 ;;      1109 rIdx = r0x1059 
                      02138         .line   158; "Button.c" SWs_Info[current_SW].sw_state = SW_RELEASED;
026A   08??           02139         MOVF    r0x1019,W
                      02140 ;; >>> /home/sdcc-builder/build/sdcc-build/orig/sdcc/src/pic14/gen.c:5602:setup_fsr
026B   1283 1303      02141         BANKSEL FSR
026D   0084           02142         MOVWF   FSR
                      02143 ;;; /home/sdcc-builder/build/sdcc-build/orig/sdcc/src/pic14/gen.c:5553:SetIrp *{*
                      02144 ;; >>> /home/sdcc-builder/build/sdcc-build/orig/sdcc/src/pic14/gen.c:5580:SetIrp
026E   1383           02145         BCF     STATUS,7
                      02146 ;; >>> /home/sdcc-builder/build/sdcc-build/orig/sdcc/src/pic14/gen.c:5583:SetIrp
026F   ???? ????      02147         BANKSEL r0x101A
0271   18??           02148         BTFSC   r0x101A,0
                      02149 ;; >>> /home/sdcc-builder/build/sdcc-build/orig/sdcc/src/pic14/gen.c:5584:SetIrp
0272   1783           02150         BSF     STATUS,7
                      02151 ;; ***  genNearPointerSet  6548
                      02152 ;; >>> /home/sdcc-builder/build/sdcc-build/orig/sdcc/src/pic14/gen.c:6560:genNearPointerSet
0273   3000           02153         MOVLW   0x00
                      02154 ;; >>> /home/sdcc-builder/build/sdcc-build/orig/sdcc/src/pic14/gen.c:6569:genNearPointerSet
0274   1283 1303      02155         BANKSEL INDF
0276   0080           02156         MOVWF   INDF
                      02157 ;; ***  genNearPointerSet  6577
                      02158 ;; ***  genNearPointerSet  6603
                      02159 ;;; /home/sdcc-builder/build/sdcc-build/orig/sdcc/src/pic14/gen.c:2316:resultRemat *{*
                      02160 ;;; /home/sdcc-builder/build/sdcc-build/orig/sdcc/src/pic14/gen.c:2760:genLabel *{*
                      02161 ;; ***  genLabel  2763
                      02162 ;;; /home/sdcc-builder/build/sdcc-build/orig/sdcc/src/pic14/gen.c:2316:resultRemat *{*
                      02163 ;; ***  genPlus  611
                      02164 ;;; /home/sdcc-builder/build/sdcc-build/orig/sdcc/src/pic14/genarith.c:612:genPlus *{*
                      02165 ;;      694 register type nRegs=1
                      02166 ;;      575
                      02167 ;;      line = 618 result AOP_REG=r0x1056, size=1, left AOP_REG=r0x1056, size=1, right AOP_LIT=0x01, siz
                            e=1
                      02168 ;;; /home/sdcc-builder/build/sdcc-build/orig/sdcc/src/pic14/genarith.c:142:genPlusIncr *{*
                      02169 ;; ***  genPlusIncr  144
                      02170 ;;      result AOP_REG, left AOP_REG, right AOP_LIT
                      02171 ;;      genPlusIncr  156
                      02172 ;; >>> /home/sdcc-builder/build/sdcc-build/orig/sdcc/src/pic14/genarith.c:168:genPlusIncr
                      02173 ;;      1109 rIdx = r0x1056 
0277                  02174 _00157_DS_
                      02175         .line   85; "Button.c"  for (current_SW = SW_INCREMENT; current_SW < N_SWITCHES; current_SW++)
0277   ???? ????      02176         BANKSEL r0x1016
0279   0A??           02177         INCF    r0x1016,F
                      02178 ;;; /home/sdcc-builder/build/sdcc-build/orig/sdcc/src/pic14/gen.c:2316:resultRemat *{*
                      02179 ;;; /home/sdcc-builder/build/sdcc-build/orig/sdcc/src/pic14/gen.c:3583:genCmpLt *{*
                      02180 ;; ***  genCmpLt  3584
                      02181 ;;      694 register type nRegs=1
                      02182 ;;; /home/sdcc-builder/build/sdcc-build/orig/sdcc/src/pic14/gen.c:3294:genCmp *{*
                      02183 ;;unsigned compare: left < lit(0x2=2), size=1
                      02184 ;; >>> /home/sdcc-builder/build/sdcc-build/orig/sdcc/src/pic14/gen.c:3265:pic14_mov2w_regOrLit
027A   3002           02185         MOVLW   0x02
                      02186 ;; >>> /home/sdcc-builder/build/sdcc-build/orig/sdcc/src/pic14/gen.c:3432:genCmp
gpasm-1.4.0 #1106 (Oct  6 2014) obj\Debug\But   5-1-2022  15:39:59          PAGE 43


LOC    OBJECT CODE    LINE  SOURCE TEXT
  VALUE

                      02187 ;;      1109 rIdx = r0x1056 
027B   02??           02188         SUBWF   r0x1016,W
                      02189 ;;; /home/sdcc-builder/build/sdcc-build/orig/sdcc/src/pic14/gen.c:3237:genSkipc *{*
                      02190 ;; >>> /home/sdcc-builder/build/sdcc-build/orig/sdcc/src/pic14/gen.c:3244:genSkipc
027C   1C03           02191         BTFSS   STATUS,0
                      02192 ;; >>> /home/sdcc-builder/build/sdcc-build/orig/sdcc/src/pic14/gen.c:3246:genSkipc
                      02193 ;; ***  popGetLabel  key=35, label offset 21
027D   2???           02194         GOTO    _00156_DS_
                      02195 ;;genSkipc:3247: created from rifx:027A5DF4
                      02196 ;;; /home/sdcc-builder/build/sdcc-build/orig/sdcc/src/pic14/gen.c:2316:resultRemat *{*
                      02197 ;;; /home/sdcc-builder/build/sdcc-build/orig/sdcc/src/pic14/gen.c:2316:resultRemat *{*
                      02198 ;;; /home/sdcc-builder/build/sdcc-build/orig/sdcc/src/pic14/gen.c:2760:genLabel *{*
                      02199 ;; ***  genLabel  2763
                      02200 ;;; /home/sdcc-builder/build/sdcc-build/orig/sdcc/src/pic14/gen.c:2316:resultRemat *{*
                      02201 ;;; /home/sdcc-builder/build/sdcc-build/orig/sdcc/src/pic14/gen.c:2528:genEndFunction *{*
                      02202 ;; ***  genEndFunction  2530
027E                  02203 _00158_DS_
027E   0008           02204         RETURN  
                      02205 ; exit point of _SW_Update
                      02206 ;;; /home/sdcc-builder/build/sdcc-build/orig/sdcc/src/pic14/gen.c:7426:genpic14Code *{*
                      02207 
                      02208 ;***
                      02209 ;  pBlock Stats: dbName = C
                      02210 ;***
                      02211 ;entry:  _SW_GetState   ;Function start
                      02212 ; 2 exit points
                      02213 ;has an exit
                      02214 ;functions called:
                      02215 ;   __mulchar
                      02216 ;   __mulchar
                      02217 ;5 compiler assigned registers:
                      02218 ;   r0x1020
                      02219 ;   STK00
                      02220 ;   r0x1021
                      02221 ;   r0x1022
                      02222 ;   r0x1023
                      02223 ;; Starting pCode block
                      02224 ;;; /home/sdcc-builder/build/sdcc-build/orig/sdcc/src/pic14/gen.c:2316:resultRemat *{*
                      02225 ;;; /home/sdcc-builder/build/sdcc-build/orig/sdcc/src/pic14/gen.c:2760:genLabel *{*
                      02226 ;; ***  genLabel  2763
                      02227 ;;; /home/sdcc-builder/build/sdcc-build/orig/sdcc/src/pic14/gen.c:2316:resultRemat *{*
                      02228 ;;; /home/sdcc-builder/build/sdcc-build/orig/sdcc/src/pic14/gen.c:2340:genFunction *{*
                      02229 ;; ***  genFunction  2342 curr label offset=4previous max_key=9 
027F                  02230 _SW_GetState    ;Function start
                      02231 ; 2 exit points
                      02232 ;;; /home/sdcc-builder/build/sdcc-build/orig/sdcc/src/pic14/gen.c:2316:resultRemat *{*
                      02233 ;;; /home/sdcc-builder/build/sdcc-build/orig/sdcc/src/pic14/gen.c:7358:genReceive *{*
                      02234 ;; ***  genReceive  7359
                      02235 ;;      694 register type nRegs=1
                      02236 ;;; /home/sdcc-builder/build/sdcc-build/orig/sdcc/src/pic14/gen.c:1907:assignResultValue *{*
                      02237 ;; ***  assignResultValue  1909
                      02238 ;;      line = 1911 result -=-, size=0, left AOP_REG=r0x1051, size=1, right -=-, size=0
                      02239 ;; >>> /home/sdcc-builder/build/sdcc-build/orig/sdcc/src/pic14/gen.c:1393:movwf
gpasm-1.4.0 #1106 (Oct  6 2014) obj\Debug\But   5-1-2022  15:39:59          PAGE 44


LOC    OBJECT CODE    LINE  SOURCE TEXT
  VALUE

                      02240 ;;      1109 rIdx = r0x1051 
                      02241         .line   61; "Button.c"  tSW_State SW_GetState(tSW sw)
027F   ???? ????      02242         BANKSEL r0x1020
0281   00??           02243         MOVWF   r0x1020
                      02244 ;;; /home/sdcc-builder/build/sdcc-build/orig/sdcc/src/pic14/gen.c:2316:resultRemat *{*
                      02245 ;;; /home/sdcc-builder/build/sdcc-build/orig/sdcc/src/pic14/gen.c:2316:resultRemat *{*
                      02246 ;;; /home/sdcc-builder/build/sdcc-build/orig/sdcc/src/pic14/gen.c:2878:genMult *{*
                      02247 ;; ***  genMult  2880
                      02248 ;;      694 register type nRegs=1
                      02249 ;;      694 register type nRegs=2
                      02250 ;;      line = 2886 result AOP_REG=r0x1052, size=2, left AOP_REG=r0x1051, size=1, right AOP_LIT=0x0a, si
                            ze=1
                      02251 ;;; /home/sdcc-builder/build/sdcc-build/orig/sdcc/src/pic14/gen.c:2816:genMultOneByte *{*
                      02252 ;; ***  genMultOneByte  2818
                      02253 ;;      line = 2819 result AOP_REG=r0x1052, size=2, left AOP_REG=r0x1051, size=1, right AOP_LIT=0x0a, si
                            ze=1
                      02254 ;;      line = 2820, signs: result AOP_REG=u, left AOP_REG=u, right AOP_LIT=u
                      02255 ;; ***  mov2w  1381  offset=0
                      02256 ;; >>> /home/sdcc-builder/build/sdcc-build/orig/sdcc/src/pic14/gen.c:1384:mov2w
                      02257         .line   65; "Button.c"  return SWs_Info[sw].sw_state;
0282   300A           02258         MOVLW   0x0a
                      02259 ;; >>> /home/sdcc-builder/build/sdcc-build/orig/sdcc/src/pic14/gen.c:2840:genMultOneByte
                      02260 ;; ***  popRegFromIdx,1042  , rIdx=0x7f
0283   00??           02261         MOVWF   STK00
                      02262 ;; ***  mov2w  1381  offset=0
                      02263 ;; >>> /home/sdcc-builder/build/sdcc-build/orig/sdcc/src/pic14/gen.c:1386:mov2w
                      02264 ;;      1109 rIdx = r0x1051 
0284   08??           02265         MOVF    r0x1020,W
                      02266 ;; >>> /home/sdcc-builder/build/sdcc-build/orig/sdcc/src/pic14/gen.c:1433:call_libraryfunc
0285   ???? ????      02267         PAGESEL __mulchar
                      02268 ;; >>> /home/sdcc-builder/build/sdcc-build/orig/sdcc/src/pic14/gen.c:1435:call_libraryfunc
0287   2???           02269         CALL    __mulchar
                      02270 ;; >>> /home/sdcc-builder/build/sdcc-build/orig/sdcc/src/pic14/gen.c:1437:call_libraryfunc
0288   ???? ????      02271         PAGESEL $
                      02272 ;; >>> /home/sdcc-builder/build/sdcc-build/orig/sdcc/src/pic14/gen.c:1393:movwf
                      02273 ;;      1109 rIdx = r0x1052 
028A   ???? ????      02274         BANKSEL r0x1021
028C   00??           02275         MOVWF   r0x1021
                      02276 ;; ***  addSign  861
                      02277 ;;; /home/sdcc-builder/build/sdcc-build/orig/sdcc/src/pic14/genarith.c:862:addSign *{*
                      02278 ;; >>> /home/sdcc-builder/build/sdcc-build/orig/sdcc/src/pic14/genarith.c:881:addSign
                      02279 ;;      1109 rIdx = r0x1053 
028D   01??           02280         CLRF    r0x1022
                      02281 ;;; /home/sdcc-builder/build/sdcc-build/orig/sdcc/src/pic14/gen.c:2316:resultRemat *{*
                      02282 ;; ***  genPlus  611
                      02283 ;;; /home/sdcc-builder/build/sdcc-build/orig/sdcc/src/pic14/genarith.c:612:genPlus *{*
                      02284 ;;      613
                      02285 ;;      aopForRemat 392
                      02286 ;;      418: rname _SWs_Info, val 0, const = 0
                      02287 ;;      694 register type nRegs=2
                      02288 ;;      694 register type nRegs=2
                      02289 ;;      833: aopGet AOP_PCODE type PO_IMMEDIATE
                      02290 ;;      _SWs_Info
gpasm-1.4.0 #1106 (Oct  6 2014) obj\Debug\But   5-1-2022  15:39:59          PAGE 45


LOC    OBJECT CODE    LINE  SOURCE TEXT
  VALUE

                      02291 ;;      line = 618 result AOP_REG=r0x1051, size=2, left AOP_PCODE=_SWs_Info, size=2, right AOP_REG=r0x10
                            52, size=2
                      02292 ;;; /home/sdcc-builder/build/sdcc-build/orig/sdcc/src/pic14/genarith.c:142:genPlusIncr *{*
                      02293 ;; ***  genPlusIncr  144
                      02294 ;;      result AOP_REG, left AOP_PCODE, right AOP_REG
                      02295 ;; ***  genPlus  717
                      02296 ;;      833: aopGet AOP_PCODE type PO_IMMEDIATE
                      02297 ;;      _SWs_Info
                      02298 ;; >>> /home/sdcc-builder/build/sdcc-build/orig/sdcc/src/pic14/genarith.c:726:genPlus
                      02299 ;;      1109 rIdx = r0x1052 
028E   08??           02300         MOVF    r0x1021,W
                      02301 ;; >>> /home/sdcc-builder/build/sdcc-build/orig/sdcc/src/pic14/genarith.c:735:genPlus
028F   3E??           02302         ADDLW   (_SWs_Info + 0)
                      02303 ;; >>> /home/sdcc-builder/build/sdcc-build/orig/sdcc/src/pic14/genarith.c:736:genPlus
                      02304 ;;      1109 rIdx = r0x1051 
0290   00??           02305         MOVWF   r0x1020
                      02306 ;; >>> /home/sdcc-builder/build/sdcc-build/orig/sdcc/src/pic14/genarith.c:771:genPlus
0291   30??           02307         MOVLW   high (_SWs_Info + 0)
                      02308 ;; >>> /home/sdcc-builder/build/sdcc-build/orig/sdcc/src/pic14/genarith.c:772:genPlus
                      02309 ;;      1109 rIdx = r0x1054 
0292   00??           02310         MOVWF   r0x1023
                      02311 ;; >>> /home/sdcc-builder/build/sdcc-build/orig/sdcc/src/pic14/genarith.c:774:genPlus
                      02312 ;;      1109 rIdx = r0x1053 
0293   3000           02313         MOVLW   0x00
                      02314 ;; >>> /home/sdcc-builder/build/sdcc-build/orig/sdcc/src/pic14/genarith.c:775:genPlus
0294   1803           02315         BTFSC   STATUS,0
                      02316 ;; >>> /home/sdcc-builder/build/sdcc-build/orig/sdcc/src/pic14/genarith.c:776:genPlus
                      02317 ;;      1109 rIdx = r0x1053 
0295   0F??           02318         INCFSZ  r0x1022,W
                      02319 ;; >>> /home/sdcc-builder/build/sdcc-build/orig/sdcc/src/pic14/genarith.c:777:genPlus
                      02320 ;;      1109 rIdx = r0x1054 
0296   07??           02321         ADDWF   r0x1023,F
                      02322 ;;; /home/sdcc-builder/build/sdcc-build/orig/sdcc/src/pic14/gen.c:2316:resultRemat *{*
                      02323 ;; ***  genPlus  611
                      02324 ;;; /home/sdcc-builder/build/sdcc-build/orig/sdcc/src/pic14/genarith.c:612:genPlus *{*
                      02325 ;;      694 register type nRegs=2
                      02326 ;;      694 register type nRegs=2
                      02327 ;;      line = 618 result AOP_REG=r0x1051, size=2, left AOP_REG=r0x1051, size=2, right AOP_LIT=0x05, siz
                            e=1
                      02328 ;;; /home/sdcc-builder/build/sdcc-build/orig/sdcc/src/pic14/genarith.c:142:genPlusIncr *{*
                      02329 ;; ***  genPlusIncr  144
                      02330 ;;      result AOP_REG, left AOP_REG, right AOP_LIT
                      02331 ;;      genPlusIncr  156
                      02332 ;;      adding lit to something. size 2
                      02333 ;;; /home/sdcc-builder/build/sdcc-build/orig/sdcc/src/pic14/genarith.c:269:genAddLit *{*
                      02334 ;; ***  genAddLit  270
                      02335 ;; hi = 0       genAddLit  328
                      02336 ;; >>> /home/sdcc-builder/build/sdcc-build/orig/sdcc/src/pic14/genarith.c:344:genAddLit
0297   3005           02337         MOVLW   0x05
                      02338 ;; >>> /home/sdcc-builder/build/sdcc-build/orig/sdcc/src/pic14/genarith.c:345:genAddLit
                      02339 ;;      1109 rIdx = r0x1051 
0298   07??           02340         ADDWF   r0x1020,F
                      02341 ;; >>> /home/sdcc-builder/build/sdcc-build/orig/sdcc/src/pic14/genarith.c:346:genAddLit
gpasm-1.4.0 #1106 (Oct  6 2014) obj\Debug\But   5-1-2022  15:39:59          PAGE 46


LOC    OBJECT CODE    LINE  SOURCE TEXT
  VALUE

0299   1803           02342         BTFSC   STATUS,0
                      02343 ;; >>> /home/sdcc-builder/build/sdcc-build/orig/sdcc/src/pic14/genarith.c:347:genAddLit
                      02344 ;;      1109 rIdx = r0x1054 
029A   0A??           02345         INCF    r0x1023,F
                      02346 ;; ***  addSign  861
                      02347 ;;; /home/sdcc-builder/build/sdcc-build/orig/sdcc/src/pic14/genarith.c:862:addSign *{*
                      02348 ;;; /home/sdcc-builder/build/sdcc-build/orig/sdcc/src/pic14/gen.c:2316:resultRemat *{*
                      02349 ;;; /home/sdcc-builder/build/sdcc-build/orig/sdcc/src/pic14/gen.c:6162:genPointerGet *{*
                      02350 ;; ***  genPointerGet  6163
                      02351 ;;; /home/sdcc-builder/build/sdcc-build/orig/sdcc/src/pic14/gen.c:5944:genNearPointerGet *{*
                      02352 ;; ***  genNearPointerGet  5945
                      02353 ;;      694 register type nRegs=2
                      02354 ;; ***  genNearPointerGet  5961
                      02355 ;;      694 register type nRegs=1
                      02356 ;;; /home/sdcc-builder/build/sdcc-build/orig/sdcc/src/pic14/gen.c:1343:mov2w_op *{*
                      02357 ;; ***  mov2w  1381  offset=0
                      02358 ;; >>> /home/sdcc-builder/build/sdcc-build/orig/sdcc/src/pic14/gen.c:1386:mov2w
                      02359 ;;      1109 rIdx = r0x1051 
029B   08??           02360         MOVF    r0x1020,W
                      02361 ;; >>> /home/sdcc-builder/build/sdcc-build/orig/sdcc/src/pic14/gen.c:5602:setup_fsr
029C   1283 1303      02362         BANKSEL FSR
029E   0084           02363         MOVWF   FSR
                      02364 ;;; /home/sdcc-builder/build/sdcc-build/orig/sdcc/src/pic14/gen.c:5553:SetIrp *{*
                      02365 ;; >>> /home/sdcc-builder/build/sdcc-build/orig/sdcc/src/pic14/gen.c:5580:SetIrp
029F   1383           02366         BCF     STATUS,7
                      02367 ;; >>> /home/sdcc-builder/build/sdcc-build/orig/sdcc/src/pic14/gen.c:5583:SetIrp
02A0   ???? ????      02368         BANKSEL r0x1023
02A2   18??           02369         BTFSC   r0x1023,0
                      02370 ;; >>> /home/sdcc-builder/build/sdcc-build/orig/sdcc/src/pic14/gen.c:5584:SetIrp
02A3   1783           02371         BSF     STATUS,7
                      02372 ;; ***  genNearPointerGet  5988
                      02373 ;; >>> /home/sdcc-builder/build/sdcc-build/orig/sdcc/src/pic14/gen.c:5995:genNearPointerGet
02A4   1283 1303      02374         BANKSEL INDF
02A6   0800           02375         MOVF    INDF,W
                      02376 ;; >>> /home/sdcc-builder/build/sdcc-build/orig/sdcc/src/pic14/gen.c:6002:genNearPointerGet
                      02377 ;;      1109 rIdx = r0x1052 
02A7   ???? ????      02378         BANKSEL r0x1021
02A9   00??           02379         MOVWF   r0x1021
02AA   0008           02380         RETURN  
                      02381 ; exit point of _SW_GetState
                      02382 ;;; /home/sdcc-builder/build/sdcc-build/orig/sdcc/src/pic14/gen.c:7426:genpic14Code *{*
                      02383 
                      02384 ;***
                      02385 ;  pBlock Stats: dbName = C
                      02386 ;***
                      02387 ;entry:  _SW_Init       ;Function start
                      02388 ; 2 exit points
                      02389 ;has an exit
                      02390 ;functions called:
                      02391 ;   __mulchar
                      02392 ;   __mulchar
                      02393 ;9 compiler assigned registers:
                      02394 ;   r0x1024
gpasm-1.4.0 #1106 (Oct  6 2014) obj\Debug\But   5-1-2022  15:39:59          PAGE 47


LOC    OBJECT CODE    LINE  SOURCE TEXT
  VALUE

                      02395 ;   STK00
                      02396 ;   r0x1025
                      02397 ;   r0x1026
                      02398 ;   r0x1027
                      02399 ;   r0x1028
                      02400 ;   r0x1029
                      02401 ;   r0x102A
                      02402 ;   r0x102B
                      02403 ;; Starting pCode block
                      02404 ;;; /home/sdcc-builder/build/sdcc-build/orig/sdcc/src/pic14/gen.c:2316:resultRemat *{*
                      02405 ;;; /home/sdcc-builder/build/sdcc-build/orig/sdcc/src/pic14/gen.c:2760:genLabel *{*
                      02406 ;; ***  genLabel  2763
                      02407 ;;; /home/sdcc-builder/build/sdcc-build/orig/sdcc/src/pic14/gen.c:2316:resultRemat *{*
                      02408 ;;; /home/sdcc-builder/build/sdcc-build/orig/sdcc/src/pic14/gen.c:2340:genFunction *{*
                      02409 ;; ***  genFunction  2342 curr label offset=0previous max_key=0 
02AB                  02410 _SW_Init        ;Function start
                      02411 ; 2 exit points
                      02412 ;;; /home/sdcc-builder/build/sdcc-build/orig/sdcc/src/pic14/gen.c:2316:resultRemat *{*
                      02413 ;;; /home/sdcc-builder/build/sdcc-build/orig/sdcc/src/pic14/gen.c:7120:genCast *{*
                      02414 ;; ***  genCast  7121
                      02415 ;; ***  aopForSym 315
                      02416 ;;      327 sym->rname = _TRISB, size = 1
                      02417 ;;      694 register type nRegs=1
                      02418 ;;      line = 7129 result AOP_REG=r0x1048, size=1, left -=-, size=0, right AOP_DIR=_TRISB, size=1
                      02419 ;; ***  genCast  7253
                      02420 ;; >>> /home/sdcc-builder/build/sdcc-build/orig/sdcc/src/pic14/gen.c:7277:genCast
                      02421 ;;      1009
                      02422 ;;      1028  _TRISB   offset=0
                      02423         .line   42; "Button.c"  GPIO_InitPortPin(SW_INCREMENT_PORT_CR, SW_INCREMENT_PIN, GPIO_IN);
02AB   ???? ????      02424         BANKSEL _TRISB
02AD   08??           02425         MOVF    _TRISB,W
                      02426 ;; >>> /home/sdcc-builder/build/sdcc-build/orig/sdcc/src/pic14/gen.c:7278:genCast
                      02427 ;;      1109 rIdx = r0x1048 
02AE   ???? ????      02428         BANKSEL r0x1024
02B0   00??           02429         MOVWF   r0x1024
                      02430 ;;; /home/sdcc-builder/build/sdcc-build/orig/sdcc/src/pic14/gen.c:2316:resultRemat *{*
                      02431 ;;; /home/sdcc-builder/build/sdcc-build/orig/sdcc/src/pic14/gen.c:3919:genAnd *{*
                      02432 ;; ***  genAnd  3920
                      02433 ;;      694 register type nRegs=1
                      02434 ;;      694 register type nRegs=1
                      02435 ;;      line = 3955 result AOP_REG=r0x1048, size=1, left AOP_REG=r0x1048, size=1, right AOP_LIT=0xfe, si
                            ze=1
                      02436 ;; >>> /home/sdcc-builder/build/sdcc-build/orig/sdcc/src/pic14/gen.c:4122:genAnd
02B1   10??           02437         BCF     r0x1024,0
                      02438 ;;; /home/sdcc-builder/build/sdcc-build/orig/sdcc/src/pic14/gen.c:2316:resultRemat *{*
                      02439 ;;; /home/sdcc-builder/build/sdcc-build/orig/sdcc/src/pic14/gen.c:4220:genOr *{*
                      02440 ;; ***  genOr  4221
                      02441 ;;      694 register type nRegs=1
                      02442 ;; ***  aopForSym 315
                      02443 ;;      327 sym->rname = _TRISB, size = 1
                      02444 ;;      line = 4227 result AOP_DIR=_TRISB, size=1, left AOP_REG=r0x1048, size=1, right AOP_LIT=0x01, siz
                            e=1
                      02445 ;;      line = 4253 result AOP_DIR=_TRISB, size=1, left AOP_REG=r0x1048, size=1, right AOP_LIT=0x01, siz
gpasm-1.4.0 #1106 (Oct  6 2014) obj\Debug\But   5-1-2022  15:39:59          PAGE 48


LOC    OBJECT CODE    LINE  SOURCE TEXT
  VALUE

                            e=1
                      02446 ;; >>> /home/sdcc-builder/build/sdcc-build/orig/sdcc/src/pic14/gen.c:4470:genOr
02B2   3001           02447         MOVLW   0x01
                      02448 ;; >>> /home/sdcc-builder/build/sdcc-build/orig/sdcc/src/pic14/gen.c:4471:genOr
                      02449 ;;      1109 rIdx = r0x1048 
02B3   04??           02450         IORWF   r0x1024,W
                      02451 ;; >>> /home/sdcc-builder/build/sdcc-build/orig/sdcc/src/pic14/gen.c:4472:genOr
                      02452 ;;      1009
                      02453 ;;      1028  _TRISB   offset=0
02B4   ???? ????      02454         BANKSEL _TRISB
02B6   00??           02455         MOVWF   _TRISB
                      02456 ;;; /home/sdcc-builder/build/sdcc-build/orig/sdcc/src/pic14/gen.c:2316:resultRemat *{*
                      02457 ;;; /home/sdcc-builder/build/sdcc-build/orig/sdcc/src/pic14/gen.c:7120:genCast *{*
                      02458 ;; ***  genCast  7121
                      02459 ;; ***  aopForSym 315
                      02460 ;;      327 sym->rname = _TRISB, size = 1
                      02461 ;;      694 register type nRegs=1
                      02462 ;;      line = 7129 result AOP_REG=r0x1048, size=1, left -=-, size=0, right AOP_DIR=_TRISB, size=1
                      02463 ;; ***  genCast  7253
                      02464 ;; >>> /home/sdcc-builder/build/sdcc-build/orig/sdcc/src/pic14/gen.c:7277:genCast
                      02465 ;;      1009
                      02466 ;;      1028  _TRISB   offset=0
                      02467         .line   43; "Button.c"  GPIO_InitPortPin(SW_RESET_PORT_CR, SW_RESET_PIN, GPIO_IN);
02B7   08??           02468         MOVF    _TRISB,W
                      02469 ;; >>> /home/sdcc-builder/build/sdcc-build/orig/sdcc/src/pic14/gen.c:7278:genCast
                      02470 ;;      1109 rIdx = r0x1048 
02B8   ???? ????      02471         BANKSEL r0x1024
02BA   00??           02472         MOVWF   r0x1024
                      02473 ;;; /home/sdcc-builder/build/sdcc-build/orig/sdcc/src/pic14/gen.c:2316:resultRemat *{*
                      02474 ;;; /home/sdcc-builder/build/sdcc-build/orig/sdcc/src/pic14/gen.c:3919:genAnd *{*
                      02475 ;; ***  genAnd  3920
                      02476 ;;      694 register type nRegs=1
                      02477 ;;      694 register type nRegs=1
                      02478 ;;      line = 3955 result AOP_REG=r0x1048, size=1, left AOP_REG=r0x1048, size=1, right AOP_LIT=0xfd, si
                            ze=1
                      02479 ;; >>> /home/sdcc-builder/build/sdcc-build/orig/sdcc/src/pic14/gen.c:4122:genAnd
02BB   10??           02480         BCF     r0x1024,1
                      02481 ;;; /home/sdcc-builder/build/sdcc-build/orig/sdcc/src/pic14/gen.c:2316:resultRemat *{*
                      02482 ;;; /home/sdcc-builder/build/sdcc-build/orig/sdcc/src/pic14/gen.c:4220:genOr *{*
                      02483 ;; ***  genOr  4221
                      02484 ;;      694 register type nRegs=1
                      02485 ;; ***  aopForSym 315
                      02486 ;;      327 sym->rname = _TRISB, size = 1
                      02487 ;;      line = 4227 result AOP_DIR=_TRISB, size=1, left AOP_REG=r0x1048, size=1, right AOP_LIT=0x02, siz
                            e=1
                      02488 ;;      line = 4253 result AOP_DIR=_TRISB, size=1, left AOP_REG=r0x1048, size=1, right AOP_LIT=0x02, siz
                            e=1
                      02489 ;; >>> /home/sdcc-builder/build/sdcc-build/orig/sdcc/src/pic14/gen.c:4470:genOr
02BC   3002           02490         MOVLW   0x02
                      02491 ;; >>> /home/sdcc-builder/build/sdcc-build/orig/sdcc/src/pic14/gen.c:4471:genOr
                      02492 ;;      1109 rIdx = r0x1048 
02BD   04??           02493         IORWF   r0x1024,W
                      02494 ;; >>> /home/sdcc-builder/build/sdcc-build/orig/sdcc/src/pic14/gen.c:4472:genOr
gpasm-1.4.0 #1106 (Oct  6 2014) obj\Debug\But   5-1-2022  15:39:59          PAGE 49


LOC    OBJECT CODE    LINE  SOURCE TEXT
  VALUE

                      02495 ;;      1009
                      02496 ;;      1028  _TRISB   offset=0
02BE   ???? ????      02497         BANKSEL _TRISB
02C0   00??           02498         MOVWF   _TRISB
                      02499 ;;; /home/sdcc-builder/build/sdcc-build/orig/sdcc/src/pic14/gen.c:2316:resultRemat *{*
                      02500 ;;; /home/sdcc-builder/build/sdcc-build/orig/sdcc/src/pic14/gen.c:2316:resultRemat *{*
                      02501 ;;; /home/sdcc-builder/build/sdcc-build/orig/sdcc/src/pic14/gen.c:6927:genAssign *{*
                      02502 ;; ***  genAssign  6928
                      02503 ;;      694 register type nRegs=1
                      02504 ;;      line = 6937 result AOP_REG=r0x1048, size=1, left -=-, size=0, right AOP_LIT=0x00, size=1
                      02505 ;; ***  genAssign  7023
                      02506 ;; >>> /home/sdcc-builder/build/sdcc-build/orig/sdcc/src/pic14/gen.c:7035:genAssign
                      02507 ;;      1109 rIdx = r0x1048 
                      02508         .line   46; "Button.c"  for (current_SW = SW_INCREMENT; current_SW < N_SWITCHES; current_SW++)
02C1   ???? ????      02509         BANKSEL r0x1024
02C3   01??           02510         CLRF    r0x1024
                      02511 ;;; /home/sdcc-builder/build/sdcc-build/orig/sdcc/src/pic14/gen.c:2316:resultRemat *{*
                      02512 ;;; /home/sdcc-builder/build/sdcc-build/orig/sdcc/src/pic14/gen.c:2760:genLabel *{*
                      02513 ;; ***  genLabel  2763
                      02514 ;;; /home/sdcc-builder/build/sdcc-build/orig/sdcc/src/pic14/gen.c:2316:resultRemat *{*
                      02515 ;;; /home/sdcc-builder/build/sdcc-build/orig/sdcc/src/pic14/gen.c:2878:genMult *{*
                      02516 ;; ***  genMult  2880
                      02517 ;;      694 register type nRegs=1
                      02518 ;;      694 register type nRegs=2
                      02519 ;;      line = 2886 result AOP_REG=r0x1049, size=2, left AOP_REG=r0x1048, size=1, right AOP_LIT=0x0a, si
                            ze=1
                      02520 ;;; /home/sdcc-builder/build/sdcc-build/orig/sdcc/src/pic14/gen.c:2816:genMultOneByte *{*
                      02521 ;; ***  genMultOneByte  2818
                      02522 ;;      line = 2819 result AOP_REG=r0x1049, size=2, left AOP_REG=r0x1048, size=1, right AOP_LIT=0x0a, si
                            ze=1
                      02523 ;;      line = 2820, signs: result AOP_REG=u, left AOP_REG=u, right AOP_LIT=u
                      02524 ;; ***  mov2w  1381  offset=0
                      02525 ;; >>> /home/sdcc-builder/build/sdcc-build/orig/sdcc/src/pic14/gen.c:1384:mov2w
02C4                  02526 _00113_DS_
                      02527         .line   49; "Button.c"  for (sample_index = 0; sample_index < N_SAMPLES; sample_index++)
02C4   300A           02528         MOVLW   0x0a
                      02529 ;; >>> /home/sdcc-builder/build/sdcc-build/orig/sdcc/src/pic14/gen.c:2840:genMultOneByte
                      02530 ;; ***  popRegFromIdx,1042  , rIdx=0x7f
02C5   00??           02531         MOVWF   STK00
                      02532 ;; ***  mov2w  1381  offset=0
                      02533 ;; >>> /home/sdcc-builder/build/sdcc-build/orig/sdcc/src/pic14/gen.c:1386:mov2w
                      02534 ;;      1109 rIdx = r0x1048 
02C6   ???? ????      02535         BANKSEL r0x1024
02C8   08??           02536         MOVF    r0x1024,W
                      02537 ;; >>> /home/sdcc-builder/build/sdcc-build/orig/sdcc/src/pic14/gen.c:1433:call_libraryfunc
02C9   ???? ????      02538         PAGESEL __mulchar
                      02539 ;; >>> /home/sdcc-builder/build/sdcc-build/orig/sdcc/src/pic14/gen.c:1435:call_libraryfunc
02CB   2???           02540         CALL    __mulchar
                      02541 ;; >>> /home/sdcc-builder/build/sdcc-build/orig/sdcc/src/pic14/gen.c:1437:call_libraryfunc
02CC   ???? ????      02542         PAGESEL $
                      02543 ;; >>> /home/sdcc-builder/build/sdcc-build/orig/sdcc/src/pic14/gen.c:1393:movwf
                      02544 ;;      1109 rIdx = r0x1049 
02CE   ???? ????      02545         BANKSEL r0x1025
gpasm-1.4.0 #1106 (Oct  6 2014) obj\Debug\But   5-1-2022  15:39:59          PAGE 50


LOC    OBJECT CODE    LINE  SOURCE TEXT
  VALUE

02D0   00??           02546         MOVWF   r0x1025
                      02547 ;; ***  addSign  861
                      02548 ;;; /home/sdcc-builder/build/sdcc-build/orig/sdcc/src/pic14/genarith.c:862:addSign *{*
                      02549 ;; >>> /home/sdcc-builder/build/sdcc-build/orig/sdcc/src/pic14/genarith.c:881:addSign
                      02550 ;;      1109 rIdx = r0x104A 
02D1   01??           02551         CLRF    r0x1026
                      02552 ;;; /home/sdcc-builder/build/sdcc-build/orig/sdcc/src/pic14/gen.c:2316:resultRemat *{*
                      02553 ;; ***  genPlus  611
                      02554 ;;; /home/sdcc-builder/build/sdcc-build/orig/sdcc/src/pic14/genarith.c:612:genPlus *{*
                      02555 ;;      613
                      02556 ;;      aopForRemat 392
                      02557 ;;      418: rname _SWs_Info, val 0, const = 0
                      02558 ;;      694 register type nRegs=2
                      02559 ;;      694 register type nRegs=2
                      02560 ;;      833: aopGet AOP_PCODE type PO_IMMEDIATE
                      02561 ;;      _SWs_Info
                      02562 ;;      line = 618 result AOP_REG=r0x104B, size=2, left AOP_PCODE=_SWs_Info, size=2, right AOP_REG=r0x10
                            49, size=2
                      02563 ;;; /home/sdcc-builder/build/sdcc-build/orig/sdcc/src/pic14/genarith.c:142:genPlusIncr *{*
                      02564 ;; ***  genPlusIncr  144
                      02565 ;;      result AOP_REG, left AOP_PCODE, right AOP_REG
                      02566 ;; ***  genPlus  717
                      02567 ;;      833: aopGet AOP_PCODE type PO_IMMEDIATE
                      02568 ;;      _SWs_Info
                      02569 ;; >>> /home/sdcc-builder/build/sdcc-build/orig/sdcc/src/pic14/genarith.c:726:genPlus
                      02570 ;;      1109 rIdx = r0x1049 
02D2   08??           02571         MOVF    r0x1025,W
                      02572 ;; >>> /home/sdcc-builder/build/sdcc-build/orig/sdcc/src/pic14/genarith.c:735:genPlus
02D3   3E??           02573         ADDLW   (_SWs_Info + 0)
                      02574 ;; >>> /home/sdcc-builder/build/sdcc-build/orig/sdcc/src/pic14/genarith.c:736:genPlus
                      02575 ;;      1109 rIdx = r0x104B 
02D4   00??           02576         MOVWF   r0x1027
                      02577 ;; >>> /home/sdcc-builder/build/sdcc-build/orig/sdcc/src/pic14/genarith.c:771:genPlus
02D5   30??           02578         MOVLW   high (_SWs_Info + 0)
                      02579 ;; >>> /home/sdcc-builder/build/sdcc-build/orig/sdcc/src/pic14/genarith.c:772:genPlus
                      02580 ;;      1109 rIdx = r0x104C 
02D6   00??           02581         MOVWF   r0x1028
                      02582 ;; >>> /home/sdcc-builder/build/sdcc-build/orig/sdcc/src/pic14/genarith.c:774:genPlus
                      02583 ;;      1109 rIdx = r0x104A 
02D7   3000           02584         MOVLW   0x00
                      02585 ;; >>> /home/sdcc-builder/build/sdcc-build/orig/sdcc/src/pic14/genarith.c:775:genPlus
02D8   1803           02586         BTFSC   STATUS,0
                      02587 ;; >>> /home/sdcc-builder/build/sdcc-build/orig/sdcc/src/pic14/genarith.c:776:genPlus
                      02588 ;;      1109 rIdx = r0x104A 
02D9   0F??           02589         INCFSZ  r0x1026,W
                      02590 ;; >>> /home/sdcc-builder/build/sdcc-build/orig/sdcc/src/pic14/genarith.c:777:genPlus
                      02591 ;;      1109 rIdx = r0x104C 
02DA   07??           02592         ADDWF   r0x1028,F
                      02593 ;;; /home/sdcc-builder/build/sdcc-build/orig/sdcc/src/pic14/gen.c:2316:resultRemat *{*
                      02594 ;;; /home/sdcc-builder/build/sdcc-build/orig/sdcc/src/pic14/gen.c:6927:genAssign *{*
                      02595 ;; ***  genAssign  6928
                      02596 ;;      694 register type nRegs=1
                      02597 ;;      line = 6937 result AOP_REG=r0x104D, size=1, left -=-, size=0, right AOP_LIT=0x00, size=1
gpasm-1.4.0 #1106 (Oct  6 2014) obj\Debug\But   5-1-2022  15:39:59          PAGE 51


LOC    OBJECT CODE    LINE  SOURCE TEXT
  VALUE

                      02598 ;; ***  genAssign  7023
                      02599 ;; >>> /home/sdcc-builder/build/sdcc-build/orig/sdcc/src/pic14/gen.c:7035:genAssign
                      02600 ;;      1109 rIdx = r0x104D 
02DB   01??           02601         CLRF    r0x1029
                      02602 ;;; /home/sdcc-builder/build/sdcc-build/orig/sdcc/src/pic14/gen.c:2316:resultRemat *{*
                      02603 ;;; /home/sdcc-builder/build/sdcc-build/orig/sdcc/src/pic14/gen.c:2760:genLabel *{*
                      02604 ;; ***  genLabel  2763
                      02605 ;;; /home/sdcc-builder/build/sdcc-build/orig/sdcc/src/pic14/gen.c:2316:resultRemat *{*
                      02606 ;; ***  genPlus  611
                      02607 ;;; /home/sdcc-builder/build/sdcc-build/orig/sdcc/src/pic14/genarith.c:612:genPlus *{*
                      02608 ;;      694 register type nRegs=2
                      02609 ;;      694 register type nRegs=1
                      02610 ;;      694 register type nRegs=2
                      02611 ;;      line = 618 result AOP_REG=r0x104E, size=2, left AOP_REG=r0x104B, size=2, right AOP_REG=r0x104D, 
                            size=1
                      02612 ;;; /home/sdcc-builder/build/sdcc-build/orig/sdcc/src/pic14/genarith.c:142:genPlusIncr *{*
                      02613 ;; ***  genPlusIncr  144
                      02614 ;;      result AOP_REG, left AOP_REG, right AOP_REG
                      02615 ;; ***  genPlus  717
                      02616 ;; >>> /home/sdcc-builder/build/sdcc-build/orig/sdcc/src/pic14/genarith.c:726:genPlus
                      02617 ;;      1109 rIdx = r0x104D 
02DC                  02618 _00107_DS_
                      02619         .line   51; "Button.c"  SWs_Info[current_SW].sw_samples[sample_index] = SW_RELEASED_LEVEL;
02DC   ???? ????      02620         BANKSEL r0x1029
02DE   08??           02621         MOVF    r0x1029,W
                      02622 ;; >>> /home/sdcc-builder/build/sdcc-build/orig/sdcc/src/pic14/genarith.c:735:genPlus
                      02623 ;;      1109 rIdx = r0x104B 
02DF   07??           02624         ADDWF   r0x1027,W
                      02625 ;; >>> /home/sdcc-builder/build/sdcc-build/orig/sdcc/src/pic14/genarith.c:736:genPlus
                      02626 ;;      1109 rIdx = r0x104E 
02E0   00??           02627         MOVWF   r0x102A
                      02628 ;; >>> /home/sdcc-builder/build/sdcc-build/orig/sdcc/src/pic14/genarith.c:799:genPlus
                      02629 ;;      1109 rIdx = r0x104C 
02E1   08??           02630         MOVF    r0x1028,W
                      02631 ;; >>> /home/sdcc-builder/build/sdcc-build/orig/sdcc/src/pic14/genarith.c:800:genPlus
02E2   1803           02632         BTFSC   STATUS,0
                      02633 ;; >>> /home/sdcc-builder/build/sdcc-build/orig/sdcc/src/pic14/genarith.c:801:genPlus
02E3   3E01           02634         ADDLW   0x01
                      02635 ;; >>> /home/sdcc-builder/build/sdcc-build/orig/sdcc/src/pic14/genarith.c:802:genPlus
                      02636 ;;      1109 rIdx = r0x104F 
02E4   00??           02637         MOVWF   r0x102B
                      02638 ;;; /home/sdcc-builder/build/sdcc-build/orig/sdcc/src/pic14/gen.c:2316:resultRemat *{*
                      02639 ;;; /home/sdcc-builder/build/sdcc-build/orig/sdcc/src/pic14/gen.c:6686:genPointerSet *{*
                      02640 ;; ***  genPointerSet  6687
                      02641 ;;; /home/sdcc-builder/build/sdcc-build/orig/sdcc/src/pic14/gen.c:6505:genNearPointerSet *{*
                      02642 ;; ***  genNearPointerSet  6506
                      02643 ;;      694 register type nRegs=2
                      02644 ;; ***  genNearPointerSet  6521
                      02645 ;;      line = 6523 result AOP_REG=r0x104E, size=2, left -=-, size=0, right AOP_LIT=0x01, size=1
                      02646 ;;; /home/sdcc-builder/build/sdcc-build/orig/sdcc/src/pic14/gen.c:1343:mov2w_op *{*
                      02647 ;; ***  mov2w  1381  offset=0
                      02648 ;; >>> /home/sdcc-builder/build/sdcc-build/orig/sdcc/src/pic14/gen.c:1386:mov2w
                      02649 ;;      1109 rIdx = r0x104E 
gpasm-1.4.0 #1106 (Oct  6 2014) obj\Debug\But   5-1-2022  15:39:59          PAGE 52


LOC    OBJECT CODE    LINE  SOURCE TEXT
  VALUE

02E5   08??           02650         MOVF    r0x102A,W
                      02651 ;; >>> /home/sdcc-builder/build/sdcc-build/orig/sdcc/src/pic14/gen.c:5602:setup_fsr
02E6   1283 1303      02652         BANKSEL FSR
02E8   0084           02653         MOVWF   FSR
                      02654 ;;; /home/sdcc-builder/build/sdcc-build/orig/sdcc/src/pic14/gen.c:5553:SetIrp *{*
                      02655 ;; >>> /home/sdcc-builder/build/sdcc-build/orig/sdcc/src/pic14/gen.c:5580:SetIrp
02E9   1383           02656         BCF     STATUS,7
                      02657 ;; >>> /home/sdcc-builder/build/sdcc-build/orig/sdcc/src/pic14/gen.c:5583:SetIrp
02EA   ???? ????      02658         BANKSEL r0x102B
02EC   18??           02659         BTFSC   r0x102B,0
                      02660 ;; >>> /home/sdcc-builder/build/sdcc-build/orig/sdcc/src/pic14/gen.c:5584:SetIrp
02ED   1783           02661         BSF     STATUS,7
                      02662 ;; ***  genNearPointerSet  6548
                      02663 ;; >>> /home/sdcc-builder/build/sdcc-build/orig/sdcc/src/pic14/gen.c:6560:genNearPointerSet
02EE   3001           02664         MOVLW   0x01
                      02665 ;; >>> /home/sdcc-builder/build/sdcc-build/orig/sdcc/src/pic14/gen.c:6569:genNearPointerSet
02EF   1283 1303      02666         BANKSEL INDF
02F1   0080           02667         MOVWF   INDF
                      02668 ;; ***  genNearPointerSet  6577
                      02669 ;; ***  genNearPointerSet  6603
                      02670 ;;; /home/sdcc-builder/build/sdcc-build/orig/sdcc/src/pic14/gen.c:2316:resultRemat *{*
                      02671 ;; ***  genPlus  611
                      02672 ;;; /home/sdcc-builder/build/sdcc-build/orig/sdcc/src/pic14/genarith.c:612:genPlus *{*
                      02673 ;;      694 register type nRegs=1
                      02674 ;;      575
                      02675 ;;      line = 618 result AOP_REG=r0x104D, size=1, left AOP_REG=r0x104D, size=1, right AOP_LIT=0x01, siz
                            e=1
                      02676 ;;; /home/sdcc-builder/build/sdcc-build/orig/sdcc/src/pic14/genarith.c:142:genPlusIncr *{*
                      02677 ;; ***  genPlusIncr  144
                      02678 ;;      result AOP_REG, left AOP_REG, right AOP_LIT
                      02679 ;;      genPlusIncr  156
                      02680 ;; >>> /home/sdcc-builder/build/sdcc-build/orig/sdcc/src/pic14/genarith.c:168:genPlusIncr
                      02681 ;;      1109 rIdx = r0x104D 
                      02682         .line   49; "Button.c"  for (sample_index = 0; sample_index < N_SAMPLES; sample_index++)
02F2   ???? ????      02683         BANKSEL r0x1029
02F4   0A??           02684         INCF    r0x1029,F
                      02685 ;;; /home/sdcc-builder/build/sdcc-build/orig/sdcc/src/pic14/gen.c:2316:resultRemat *{*
                      02686 ;;; /home/sdcc-builder/build/sdcc-build/orig/sdcc/src/pic14/gen.c:3583:genCmpLt *{*
                      02687 ;; ***  genCmpLt  3584
                      02688 ;;      694 register type nRegs=1
                      02689 ;;; /home/sdcc-builder/build/sdcc-build/orig/sdcc/src/pic14/gen.c:3294:genCmp *{*
                      02690 ;;unsigned compare: left < lit(0x5=5), size=1
                      02691 ;; >>> /home/sdcc-builder/build/sdcc-build/orig/sdcc/src/pic14/gen.c:3265:pic14_mov2w_regOrLit
02F5   3005           02692         MOVLW   0x05
                      02693 ;; >>> /home/sdcc-builder/build/sdcc-build/orig/sdcc/src/pic14/gen.c:3432:genCmp
                      02694 ;;      1109 rIdx = r0x104D 
02F6   02??           02695         SUBWF   r0x1029,W
                      02696 ;;; /home/sdcc-builder/build/sdcc-build/orig/sdcc/src/pic14/gen.c:3237:genSkipc *{*
                      02697 ;; >>> /home/sdcc-builder/build/sdcc-build/orig/sdcc/src/pic14/gen.c:3244:genSkipc
02F7   1C03           02698         BTFSS   STATUS,0
                      02699 ;; >>> /home/sdcc-builder/build/sdcc-build/orig/sdcc/src/pic14/gen.c:3246:genSkipc
                      02700 ;; ***  popGetLabel  key=3, label offset 4
02F8   2???           02701         GOTO    _00107_DS_
gpasm-1.4.0 #1106 (Oct  6 2014) obj\Debug\But   5-1-2022  15:39:59          PAGE 53


LOC    OBJECT CODE    LINE  SOURCE TEXT
  VALUE

                      02702 ;;genSkipc:3247: created from rifx:027A5DF4
                      02703 ;;; /home/sdcc-builder/build/sdcc-build/orig/sdcc/src/pic14/gen.c:2316:resultRemat *{*
                      02704 ;;; /home/sdcc-builder/build/sdcc-build/orig/sdcc/src/pic14/gen.c:2316:resultRemat *{*
                      02705 ;; ***  genPlus  611
                      02706 ;;; /home/sdcc-builder/build/sdcc-build/orig/sdcc/src/pic14/genarith.c:612:genPlus *{*
                      02707 ;;      613
                      02708 ;;      aopForRemat 392
                      02709 ;;      418: rname _SWs_Info, val 0, const = 0
                      02710 ;;      694 register type nRegs=2
                      02711 ;;      694 register type nRegs=2
                      02712 ;;      833: aopGet AOP_PCODE type PO_IMMEDIATE
                      02713 ;;      _SWs_Info
                      02714 ;;      line = 618 result AOP_REG=r0x1049, size=2, left AOP_PCODE=_SWs_Info, size=2, right AOP_REG=r0x10
                            49, size=2
                      02715 ;;; /home/sdcc-builder/build/sdcc-build/orig/sdcc/src/pic14/genarith.c:142:genPlusIncr *{*
                      02716 ;; ***  genPlusIncr  144
                      02717 ;;      result AOP_REG, left AOP_PCODE, right AOP_REG
                      02718 ;; ***  genPlus  717
                      02719 ;;      833: aopGet AOP_PCODE type PO_IMMEDIATE
                      02720 ;;      _SWs_Info
                      02721 ;; >>> /home/sdcc-builder/build/sdcc-build/orig/sdcc/src/pic14/genarith.c:726:genPlus
                      02722 ;;      1109 rIdx = r0x1049 
                      02723         .line   54; "Button.c"  SWs_Info[current_SW].sw_state = SW_RELEASED;
02F9   08??           02724         MOVF    r0x1025,W
                      02725 ;; >>> /home/sdcc-builder/build/sdcc-build/orig/sdcc/src/pic14/genarith.c:735:genPlus
02FA   3E??           02726         ADDLW   (_SWs_Info + 0)
                      02727 ;; >>> /home/sdcc-builder/build/sdcc-build/orig/sdcc/src/pic14/genarith.c:736:genPlus
                      02728 ;;      1109 rIdx = r0x1049 
02FB   00??           02729         MOVWF   r0x1025
                      02730 ;; >>> /home/sdcc-builder/build/sdcc-build/orig/sdcc/src/pic14/genarith.c:749:genPlus
                      02731 ;;      1109 rIdx = r0x104A 
02FC   08??           02732         MOVF    r0x1026,W
                      02733 ;; >>> /home/sdcc-builder/build/sdcc-build/orig/sdcc/src/pic14/genarith.c:750:genPlus
02FD   1803           02734         BTFSC   STATUS,0
                      02735 ;; >>> /home/sdcc-builder/build/sdcc-build/orig/sdcc/src/pic14/genarith.c:751:genPlus
                      02736 ;;      1109 rIdx = r0x104A 
02FE   0F??           02737         INCFSZ  r0x1026,W
                      02738 ;; >>> /home/sdcc-builder/build/sdcc-build/orig/sdcc/src/pic14/genarith.c:752:genPlus
02FF   3E??           02739         ADDLW   high (_SWs_Info + 0)
                      02740 ;; >>> /home/sdcc-builder/build/sdcc-build/orig/sdcc/src/pic14/genarith.c:753:genPlus
                      02741 ;;      1109 rIdx = r0x104A 
0300   00??           02742         MOVWF   r0x1026
                      02743 ;;; /home/sdcc-builder/build/sdcc-build/orig/sdcc/src/pic14/gen.c:2316:resultRemat *{*
                      02744 ;; ***  genPlus  611
                      02745 ;;; /home/sdcc-builder/build/sdcc-build/orig/sdcc/src/pic14/genarith.c:612:genPlus *{*
                      02746 ;;      694 register type nRegs=2
                      02747 ;;      694 register type nRegs=2
                      02748 ;;      line = 618 result AOP_REG=r0x1049, size=2, left AOP_REG=r0x1049, size=2, right AOP_LIT=0x05, siz
                            e=1
                      02749 ;;; /home/sdcc-builder/build/sdcc-build/orig/sdcc/src/pic14/genarith.c:142:genPlusIncr *{*
                      02750 ;; ***  genPlusIncr  144
                      02751 ;;      result AOP_REG, left AOP_REG, right AOP_LIT
                      02752 ;;      genPlusIncr  156
gpasm-1.4.0 #1106 (Oct  6 2014) obj\Debug\But   5-1-2022  15:39:59          PAGE 54


LOC    OBJECT CODE    LINE  SOURCE TEXT
  VALUE

                      02753 ;;      adding lit to something. size 2
                      02754 ;;; /home/sdcc-builder/build/sdcc-build/orig/sdcc/src/pic14/genarith.c:269:genAddLit *{*
                      02755 ;; ***  genAddLit  270
                      02756 ;; hi = 0       genAddLit  328
                      02757 ;; >>> /home/sdcc-builder/build/sdcc-build/orig/sdcc/src/pic14/genarith.c:344:genAddLit
0301   3005           02758         MOVLW   0x05
                      02759 ;; >>> /home/sdcc-builder/build/sdcc-build/orig/sdcc/src/pic14/genarith.c:345:genAddLit
                      02760 ;;      1109 rIdx = r0x1049 
0302   07??           02761         ADDWF   r0x1025,F
                      02762 ;; >>> /home/sdcc-builder/build/sdcc-build/orig/sdcc/src/pic14/genarith.c:346:genAddLit
0303   1803           02763         BTFSC   STATUS,0
                      02764 ;; >>> /home/sdcc-builder/build/sdcc-build/orig/sdcc/src/pic14/genarith.c:347:genAddLit
                      02765 ;;      1109 rIdx = r0x104A 
0304   0A??           02766         INCF    r0x1026,F
                      02767 ;; ***  addSign  861
                      02768 ;;; /home/sdcc-builder/build/sdcc-build/orig/sdcc/src/pic14/genarith.c:862:addSign *{*
                      02769 ;;; /home/sdcc-builder/build/sdcc-build/orig/sdcc/src/pic14/gen.c:2316:resultRemat *{*
                      02770 ;;; /home/sdcc-builder/build/sdcc-build/orig/sdcc/src/pic14/gen.c:6686:genPointerSet *{*
                      02771 ;; ***  genPointerSet  6687
                      02772 ;;; /home/sdcc-builder/build/sdcc-build/orig/sdcc/src/pic14/gen.c:6505:genNearPointerSet *{*
                      02773 ;; ***  genNearPointerSet  6506
                      02774 ;;      694 register type nRegs=2
                      02775 ;; ***  genNearPointerSet  6521
                      02776 ;;      line = 6523 result AOP_REG=r0x1049, size=2, left -=-, size=0, right AOP_LIT=0x00, size=1
                      02777 ;;; /home/sdcc-builder/build/sdcc-build/orig/sdcc/src/pic14/gen.c:1343:mov2w_op *{*
                      02778 ;; ***  mov2w  1381  offset=0
                      02779 ;; >>> /home/sdcc-builder/build/sdcc-build/orig/sdcc/src/pic14/gen.c:1386:mov2w
                      02780 ;;      1109 rIdx = r0x1049 
0305   08??           02781         MOVF    r0x1025,W
                      02782 ;; >>> /home/sdcc-builder/build/sdcc-build/orig/sdcc/src/pic14/gen.c:5602:setup_fsr
0306   1283 1303      02783         BANKSEL FSR
0308   0084           02784         MOVWF   FSR
                      02785 ;;; /home/sdcc-builder/build/sdcc-build/orig/sdcc/src/pic14/gen.c:5553:SetIrp *{*
                      02786 ;; >>> /home/sdcc-builder/build/sdcc-build/orig/sdcc/src/pic14/gen.c:5580:SetIrp
0309   1383           02787         BCF     STATUS,7
                      02788 ;; >>> /home/sdcc-builder/build/sdcc-build/orig/sdcc/src/pic14/gen.c:5583:SetIrp
030A   ???? ????      02789         BANKSEL r0x1026
030C   18??           02790         BTFSC   r0x1026,0
                      02791 ;; >>> /home/sdcc-builder/build/sdcc-build/orig/sdcc/src/pic14/gen.c:5584:SetIrp
030D   1783           02792         BSF     STATUS,7
                      02793 ;; ***  genNearPointerSet  6548
                      02794 ;; >>> /home/sdcc-builder/build/sdcc-build/orig/sdcc/src/pic14/gen.c:6560:genNearPointerSet
030E   3000           02795         MOVLW   0x00
                      02796 ;; >>> /home/sdcc-builder/build/sdcc-build/orig/sdcc/src/pic14/gen.c:6569:genNearPointerSet
030F   1283 1303      02797         BANKSEL INDF
0311   0080           02798         MOVWF   INDF
                      02799 ;; ***  genNearPointerSet  6577
                      02800 ;; ***  genNearPointerSet  6603
                      02801 ;;; /home/sdcc-builder/build/sdcc-build/orig/sdcc/src/pic14/gen.c:2316:resultRemat *{*
                      02802 ;; ***  genPlus  611
                      02803 ;;; /home/sdcc-builder/build/sdcc-build/orig/sdcc/src/pic14/genarith.c:612:genPlus *{*
                      02804 ;;      694 register type nRegs=1
                      02805 ;;      575
gpasm-1.4.0 #1106 (Oct  6 2014) obj\Debug\But   5-1-2022  15:39:59          PAGE 55


LOC    OBJECT CODE    LINE  SOURCE TEXT
  VALUE

                      02806 ;;      line = 618 result AOP_REG=r0x1048, size=1, left AOP_REG=r0x1048, size=1, right AOP_LIT=0x01, siz
                            e=1
                      02807 ;;; /home/sdcc-builder/build/sdcc-build/orig/sdcc/src/pic14/genarith.c:142:genPlusIncr *{*
                      02808 ;; ***  genPlusIncr  144
                      02809 ;;      result AOP_REG, left AOP_REG, right AOP_LIT
                      02810 ;;      genPlusIncr  156
                      02811 ;; >>> /home/sdcc-builder/build/sdcc-build/orig/sdcc/src/pic14/genarith.c:168:genPlusIncr
                      02812 ;;      1109 rIdx = r0x1048 
                      02813         .line   46; "Button.c"  for (current_SW = SW_INCREMENT; current_SW < N_SWITCHES; current_SW++)
0312   ???? ????      02814         BANKSEL r0x1024
0314   0A??           02815         INCF    r0x1024,F
                      02816 ;;; /home/sdcc-builder/build/sdcc-build/orig/sdcc/src/pic14/gen.c:2316:resultRemat *{*
                      02817 ;;; /home/sdcc-builder/build/sdcc-build/orig/sdcc/src/pic14/gen.c:3583:genCmpLt *{*
                      02818 ;; ***  genCmpLt  3584
                      02819 ;;      694 register type nRegs=1
                      02820 ;;; /home/sdcc-builder/build/sdcc-build/orig/sdcc/src/pic14/gen.c:3294:genCmp *{*
                      02821 ;;unsigned compare: left < lit(0x2=2), size=1
                      02822 ;; >>> /home/sdcc-builder/build/sdcc-build/orig/sdcc/src/pic14/gen.c:3265:pic14_mov2w_regOrLit
0315   3002           02823         MOVLW   0x02
                      02824 ;; >>> /home/sdcc-builder/build/sdcc-build/orig/sdcc/src/pic14/gen.c:3432:genCmp
                      02825 ;;      1109 rIdx = r0x1048 
0316   02??           02826         SUBWF   r0x1024,W
                      02827 ;;; /home/sdcc-builder/build/sdcc-build/orig/sdcc/src/pic14/gen.c:3237:genSkipc *{*
                      02828 ;; >>> /home/sdcc-builder/build/sdcc-build/orig/sdcc/src/pic14/gen.c:3244:genSkipc
0317   1C03           02829         BTFSS   STATUS,0
                      02830 ;; >>> /home/sdcc-builder/build/sdcc-build/orig/sdcc/src/pic14/gen.c:3246:genSkipc
                      02831 ;; ***  popGetLabel  key=9, label offset 4
0318   2???           02832         GOTO    _00113_DS_
                      02833 ;;genSkipc:3247: created from rifx:027A5DF4
                      02834 ;;; /home/sdcc-builder/build/sdcc-build/orig/sdcc/src/pic14/gen.c:2316:resultRemat *{*
                      02835 ;;; /home/sdcc-builder/build/sdcc-build/orig/sdcc/src/pic14/gen.c:2316:resultRemat *{*
                      02836 ;;; /home/sdcc-builder/build/sdcc-build/orig/sdcc/src/pic14/gen.c:2760:genLabel *{*
                      02837 ;; ***  genLabel  2763
                      02838 ;;; /home/sdcc-builder/build/sdcc-build/orig/sdcc/src/pic14/gen.c:2316:resultRemat *{*
                      02839 ;;; /home/sdcc-builder/build/sdcc-build/orig/sdcc/src/pic14/gen.c:2528:genEndFunction *{*
                      02840 ;; ***  genEndFunction  2530
0319   0008           02841         RETURN  
                      02842 ; exit point of _SW_Init
                      02843 ;;; /home/sdcc-builder/build/sdcc-build/orig/sdcc/src/pic14/gen.c:7426:genpic14Code *{*
                      02844 
                      02845 
                      02846 ;       code size estimation:
                      02847 ;         516+  139 =   655 instructions ( 1588 byte)
                      02848 
                      02849         end
gpasm-1.4.0 #1106 (Oct  6 2014) obj\Debug\But   5-1-2022  15:39:59          PAGE 56


SYMBOL TABLE
  LABEL                             VALUE

ACKDT                             00000005
ACKEN                             00000004
ACKSTAT                           00000006
ADCON0                            0000001F
ADCON1                            0000009F
ADCS0                             00000006
ADCS1                             00000007
ADCS2                             00000006
ADDEN                             00000003
ADFM                              00000007
ADIE                              00000006
ADIF                              00000006
ADON                              00000000
ADRESH                            0000001E
ADRESL                            0000009E
BCLIE                             00000003
BCLIF                             00000003
BF                                00000000
BRGH                              00000002
C                                 00000000
C1INV                             00000004
C1OUT                             00000006
C2INV                             00000005
C2OUT                             00000007
CCP1CON                           00000017
CCP1IE                            00000002
CCP1IF                            00000002
CCP1M0                            00000000
CCP1M1                            00000001
CCP1M2                            00000002
CCP1M3                            00000003
CCP1X                             00000005
CCP1Y                             00000004
CCP2CON                           0000001D
CCP2IE                            00000000
CCP2IF                            00000000
CCP2M0                            00000000
CCP2M1                            00000001
CCP2M2                            00000002
CCP2M3                            00000003
CCP2X                             00000005
CCP2Y                             00000004
CCPR1                             00000015
CCPR1H                            00000016
CCPR1L                            00000015
CCPR2                             0000001B
CCPR2H                            0000001C
CCPR2L                            0000001B
CHS0                              00000003
CHS1                              00000004
CHS2                              00000005
CIS                               00000003
CKE                               00000006
gpasm-1.4.0 #1106 (Oct  6 2014) obj\Debug\But   5-1-2022  15:39:59          PAGE 57


SYMBOL TABLE
  LABEL                             VALUE 

CKP                               00000004
CM0                               00000000
CM1                               00000001
CM2                               00000002
CMCON                             0000009C
CMIE                              00000006
CMIF                              00000006
CREN                              00000004
CSRC                              00000007
CVR0                              00000000
CVR1                              00000001
CVR2                              00000002
CVR3                              00000003
CVRCON                            0000009D
CVREN                             00000007
CVROE                             00000006
CVRR                              00000005
D                                 00000005
DATA_ADDRESS                      00000005
DC                                00000001
D_A                               00000005
D_NOT_A                           00000005
EEADR                             0000010D
EEADRH                            0000010F
EECON1                            0000018C
EECON2                            0000018D
EEDATA                            0000010C
EEDATH                            0000010E
EEIE                              00000004
EEIF                              00000004
EEPGD                             00000007
F                                 00000001
FERR                              00000002
FSR                               00000004
GCEN                              00000007
GIE                               00000007
GO                                00000002
GO_DONE                           00000002
GO_NOT_DONE                       00000002
I2C_DATA                          00000005
I2C_READ                          00000002
I2C_START                         00000003
I2C_STOP                          00000004
IBF                               00000007
IBOV                              00000005
INDF                              00000000
INTCON                            0000000B
INTE                              00000004
INTEDG                            00000006
INTF                              00000001
IRP                               00000007
NOT_A                             00000005
NOT_ADDRESS                       00000005
gpasm-1.4.0 #1106 (Oct  6 2014) obj\Debug\But   5-1-2022  15:39:59          PAGE 58


SYMBOL TABLE
  LABEL                             VALUE 

NOT_BO                            00000000
NOT_BOR                           00000000
NOT_DONE                          00000002
NOT_PD                            00000003
NOT_POR                           00000001
NOT_RBPU                          00000007
NOT_RC8                           00000006
NOT_T1SYNC                        00000002
NOT_TO                            00000004
NOT_TX8                           00000006
NOT_W                             00000002
NOT_WRITE                         00000002
OBF                               00000006
OERR                              00000001
OPTION_REG                        00000081
P                                 00000004
PCFG0                             00000000
PCFG1                             00000001
PCFG2                             00000002
PCFG3                             00000003
PCL                               00000002
PCLATH                            0000000A
PCON                              0000008E
PEIE                              00000006
PEN                               00000002
PIE1                              0000008C
PIE2                              0000008D
PIR1                              0000000C
PIR2                              0000000D
PORTA                             00000005
PORTB                             00000006
PORTC                             00000007
PORTD                             00000008
PORTE                             00000009
PR2                               00000092
PS0                               00000000
PS1                               00000001
PS2                               00000002
PSA                               00000003
PSAVE                             00000000
PSPIE                             00000007
PSPIF                             00000007
PSPMODE                           00000004
R                                 00000002
RA0                               00000000
RA1                               00000001
RA2                               00000002
RA3                               00000003
RA4                               00000004
RA5                               00000005
RB0                               00000000
RB1                               00000001
RB2                               00000002
gpasm-1.4.0 #1106 (Oct  6 2014) obj\Debug\But   5-1-2022  15:39:59          PAGE 59


SYMBOL TABLE
  LABEL                             VALUE 

RB3                               00000003
RB4                               00000004
RB5                               00000005
RB6                               00000006
RB7                               00000007
RBIE                              00000003
RBIF                              00000000
RC0                               00000000
RC1                               00000001
RC2                               00000002
RC3                               00000003
RC4                               00000004
RC5                               00000005
RC6                               00000006
RC7                               00000007
RC8_9                             00000006
RC9                               00000006
RCD8                              00000000
RCEN                              00000003
RCIE                              00000005
RCIF                              00000005
RCREG                             0000001A
RCSTA                             00000018
RD                                00000000
RD0                               00000000
RD1                               00000001
RD2                               00000002
RD3                               00000003
RD4                               00000004
RD5                               00000005
RD6                               00000006
RD7                               00000007
RE0                               00000000
RE1                               00000001
RE2                               00000002
READ_WRITE                        00000002
RP0                               00000005
RP1                               00000006
RSEN                              00000001
RX9                               00000006
RX9D                              00000000
R_NOT_W                           00000002
R_W                               00000002
S                                 00000003
SEN                               00000000
SMP                               00000007
SPBRG                             00000099
SPEN                              00000007
SREN                              00000005
SSAVE                             00000000
SSPADD                            00000093
SSPBUF                            00000013
SSPCON                            00000014
gpasm-1.4.0 #1106 (Oct  6 2014) obj\Debug\But   5-1-2022  15:39:59          PAGE 60


SYMBOL TABLE
  LABEL                             VALUE 

SSPCON2                           00000091
SSPEN                             00000005
SSPIE                             00000003
SSPIF                             00000003
SSPM0                             00000000
SSPM1                             00000001
SSPM2                             00000002
SSPM3                             00000003
SSPOV                             00000006
SSPSTAT                           00000094
STATUS                            00000003
STK00                             00000000
STK01                             00000000
STK02                             00000000
STK03                             00000000
STK04                             00000000
STK05                             00000000
STK06                             00000000
STK07                             00000000
STK08                             00000000
STK09                             00000000
STK10                             00000000
STK11                             00000000
STK12                             00000000
SYNC                              00000004
T0CS                              00000005
T0IE                              00000005
T0IF                              00000002
T0SE                              00000004
T1CKPS0                           00000004
T1CKPS1                           00000005
T1CON                             00000010
T1INSYNC                          00000002
T1OSCEN                           00000003
T1SYNC                            00000002
T2CKPS0                           00000000
T2CKPS1                           00000001
T2CON                             00000012
TMR0                              00000001
TMR0IE                            00000005
TMR0IF                            00000002
TMR1                              0000000E
TMR1CS                            00000001
TMR1H                             0000000F
TMR1IE                            00000000
TMR1IF                            00000000
TMR1L                             0000000E
TMR1ON                            00000000
TMR2                              00000011
TMR2IE                            00000001
TMR2IF                            00000001
TMR2ON                            00000002
TOUTPS0                           00000003
gpasm-1.4.0 #1106 (Oct  6 2014) obj\Debug\But   5-1-2022  15:39:59          PAGE 61


SYMBOL TABLE
  LABEL                             VALUE 

TOUTPS1                           00000004
TOUTPS2                           00000005
TOUTPS3                           00000006
TRISA                             00000085
TRISA0                            00000000
TRISA1                            00000001
TRISA2                            00000002
TRISA3                            00000003
TRISA4                            00000004
TRISA5                            00000005
TRISB                             00000086
TRISB0                            00000000
TRISB1                            00000001
TRISB2                            00000002
TRISB3                            00000003
TRISB4                            00000004
TRISB5                            00000005
TRISB6                            00000006
TRISB7                            00000007
TRISC                             00000087
TRISC0                            00000000
TRISC1                            00000001
TRISC2                            00000002
TRISC3                            00000003
TRISC4                            00000004
TRISC5                            00000005
TRISC6                            00000006
TRISC7                            00000007
TRISD                             00000088
TRISD0                            00000000
TRISD1                            00000001
TRISD2                            00000002
TRISD3                            00000003
TRISD4                            00000004
TRISD5                            00000005
TRISD6                            00000006
TRISD7                            00000007
TRISE                             00000089
TRISE0                            00000000
TRISE1                            00000001
TRISE2                            00000002
TRMT                              00000001
TX8_9                             00000006
TX9                               00000006
TX9D                              00000000
TXD8                              00000000
TXEN                              00000005
TXIE                              00000004
TXIF                              00000004
TXREG                             00000019
TXSTA                             00000098
UA                                00000001
W                                 00000000
gpasm-1.4.0 #1106 (Oct  6 2014) obj\Debug\But   5-1-2022  15:39:59          PAGE 62


SYMBOL TABLE
  LABEL                             VALUE 

WCOL                              00000007
WR                                00000001
WREN                              00000002
WRERR                             00000003
WSAVE                             00000000
Z                                 00000002
_00001_DS_                        000000E6
_00107_DS_                        000002DC
_00113_DS_                        000002C4
_00125_DS_                        0000006A
_00126_DS_                        00000089
_00128_DS_                        000000A9
_00129_DS_                        000000EB
_00135_DS_                        00000158
_00140_DS_                        000001B3
_00146_DS_                        00000220
_00154_DS_                        0000002C
_00156_DS_                        00000015
_00157_DS_                        00000277
_00158_DS_                        0000027E
_00224_DS_                        0000000D
_00229_DS_                        000000E7
_ADCON0                           00000000
_ADCON0bits                       00000000
_ADCON1                           00000000
_ADCON1bits                       00000000
_ADRESH                           00000000
_ADRESL                           00000000
_BODEN_OFF                        00003FBF
_BODEN_ON                         00003FFF
_BOREN_OFF                        00003FBF
_BOREN_ON                         00003FFF
_CCP1CON                          00000000
_CCP1CONbits                      00000000
_CCP2CON                          00000000
_CCP2CONbits                      00000000
_CCPR1                            00000000
_CCPR1H                           00000000
_CCPR1L                           00000000
_CCPR2                            00000000
_CCPR2H                           00000000
_CCPR2L                           00000000
_CMCON                            00000000
_CMCONbits                        00000000
_CONFIG                           00002007
_CPD_OFF                          00003FFF
_CPD_ON                           00003EFF
_CP_ALL                           00001FFF
_CP_OFF                           00003FFF
_CP_ON                            00001FFF
_CVRCON                           00000000
_CVRCONbits                       00000000
_DEBUG_OFF                        00003FFF
gpasm-1.4.0 #1106 (Oct  6 2014) obj\Debug\But   5-1-2022  15:39:59          PAGE 63


SYMBOL TABLE
  LABEL                             VALUE 

_DEBUG_ON                         000037FF
_DEVID1                           00002006
_EEADR                            00000000
_EEADRH                           00000000
_EECON1                           00000000
_EECON1bits                       00000000
_EECON2                           00000000
_EEDATA                           00000000
_EEDATH                           00000000
_FOSC_EXTRC                       00003FFF
_FOSC_HS                          00003FFE
_FOSC_LP                          00003FFC
_FOSC_XT                          00003FFD
_FSR                              00000000
_HS_OSC                           00003FFE
_IDLOC0                           00002000
_IDLOC1                           00002001
_IDLOC2                           00002002
_IDLOC3                           00002003
_INDF                             00000000
_INTCON                           00000000
_INTCONbits                       00000000
_LP_OSC                           00003FFC
_LVP_OFF                          00003F7F
_LVP_ON                           00003FFF
_OPTION_REG                       00000000
_OPTION_REGbits                   00000000
_PCL                              00000000
_PCLATH                           00000000
_PCON                             00000000
_PCONbits                         00000000
_PIE1                             00000000
_PIE1bits                         00000000
_PIE2                             00000000
_PIE2bits                         00000000
_PIR1                             00000000
_PIR1bits                         00000000
_PIR2                             00000000
_PIR2bits                         00000000
_PORTA                            00000000
_PORTAbits                        00000000
_PORTB                            00000000
_PORTBbits                        00000000
_PORTC                            00000000
_PORTCbits                        00000000
_PORTD                            00000000
_PORTDbits                        00000000
_PORTE                            00000000
_PORTEbits                        00000000
_PR2                              00000000
_PWRTE_OFF                        00003FFF
_PWRTE_ON                         00003FF7
_RCREG                            00000000
gpasm-1.4.0 #1106 (Oct  6 2014) obj\Debug\But   5-1-2022  15:39:59          PAGE 64


SYMBOL TABLE
  LABEL                             VALUE 

_RCSTA                            00000000
_RCSTAbits                        00000000
_RC_OSC                           00003FFF
_SPBRG                            00000000
_SSPADD                           00000000
_SSPBUF                           00000000
_SSPCON                           00000000
_SSPCON2                          00000000
_SSPCON2bits                      00000000
_SSPCONbits                       00000000
_SSPSTAT                          00000000
_SSPSTATbits                      00000000
_STATUS                           00000000
_STATUSbits                       00000000
_SW_GetState                      0000027F
_SW_Init                          000002AB
_SW_Update                        00000000
_SW_Update_SW_COUNTER_MS_1_16     0000002A
_SWs_Info                         00000016
_T1CON                            00000000
_T1CONbits                        00000000
_T2CON                            00000000
_T2CONbits                        00000000
_TMR0                             00000000
_TMR1                             00000000
_TMR1H                            00000000
_TMR1L                            00000000
_TMR2                             00000000
_TMR_CheckOverFlow                00000000
_TMR_Init                         00000000
_TMR_Start                        00000000
_TMR_Stop                         00000000
_TMR_Update                       00000000
_TRISA                            00000000
_TRISAbits                        00000000
_TRISB                            00000000
_TRISBbits                        00000000
_TRISC                            00000000
_TRISCbits                        00000000
_TRISD                            00000000
_TRISDbits                        00000000
_TRISE                            00000000
_TRISEbits                        00000000
_TXREG                            00000000
_TXSTA                            00000000
_TXSTAbits                        00000000
_WDTE_OFF                         00003FFB
_WDTE_ON                          00003FFF
_WDT_OFF                          00003FFB
_WDT_ON                           00003FFF
_WRT_1FOURTH                      00003BFF
_WRT_256                          00003DFF
_WRT_HALF                         000039FF
gpasm-1.4.0 #1106 (Oct  6 2014) obj\Debug\But   5-1-2022  15:39:59          PAGE 65


SYMBOL TABLE
  LABEL                             VALUE 

_WRT_OFF                          00003FFF
_XT_OSC                           00003FFD
__16F877A                         00000001
__CODE_END                        00001FFF
__CODE_START                      00000000
__COMMON_RAM_END                  0000007F
__COMMON_RAM_START                00000070
__EEPROM_END                      000021FF
__EEPROM_START                    00002100
__VECTOR_INT                      00000004
__VECTOR_RESET                    00000000
__mulchar                         00000000
_code_Button_001E                 0000001E
_code_Button_00B1                 000000B1
_code_Button_0288                 00000288
_code_Button_02CC                 000002CC
r0x1016                           0000000C
r0x1017                           0000000D
r0x1018                           0000000E
r0x1019                           0000000F
r0x101A                           00000010
r0x101B                           00000011
r0x101C                           00000012
r0x101D                           00000013
r0x101E                           00000014
r0x101F                           00000015
r0x1020                           00000008
r0x1021                           00000009
r0x1022                           0000000A
r0x1023                           0000000B
r0x1024                           00000000
r0x1025                           00000001
r0x1026                           00000002
r0x1027                           00000003
r0x1028                           00000004
r0x1029                           00000005
r0x102A                           00000006
r0x102B                           00000007

Errors   :     0
Warnings :     0 reported,     0 suppressed
Messages :     0 reported,     0 suppressed

